ARM GAS  C:\Users\agila\AppData\Local\Temp\ccpc1Loz.s 			page 1


   1              		.syntax unified
   2              		.cpu cortex-m3
   3              		.fpu softvfp
   4              		.eabi_attribute 20, 1
   5              		.eabi_attribute 21, 1
   6              		.eabi_attribute 23, 3
   7              		.eabi_attribute 24, 1
   8              		.eabi_attribute 25, 1
   9              		.eabi_attribute 26, 1
  10              		.eabi_attribute 30, 1
  11              		.eabi_attribute 34, 1
  12              		.eabi_attribute 18, 4
  13              		.thumb
  14              		.syntax unified
  15              		.file	"Pins.c"
  16              		.text
  17              	.Ltext0:
  18              		.cfi_sections	.debug_frame
  19              		.section	.text.Pins_Init,"ax",%progbits
  20              		.align	2
  21              		.global	Pins_Init
  22              		.thumb
  23              		.thumb_func
  24              		.type	Pins_Init, %function
  25              	Pins_Init:
  26              	.LFB63:
  27              		.file 1 "source\\bsw\\Pins.c"
   1:source\bsw/Pins.c **** /* ========================================
   2:source\bsw/Pins.c ****  *
   3:source\bsw/Pins.c ****  * Copyright YOUR COMPANY, THE YEAR
   4:source\bsw/Pins.c ****  * All Rights Reserved
   5:source\bsw/Pins.c ****  * UNPUBLISHED, LICENSED SOFTWARE.
   6:source\bsw/Pins.c ****  *
   7:source\bsw/Pins.c ****  * CONFIDENTIAL AND PROPRIETARY INFORMATION
   8:source\bsw/Pins.c ****  * WHICH IS THE PROPERTY OF your company.
   9:source\bsw/Pins.c ****  *
  10:source\bsw/Pins.c ****  * ========================================
  11:source\bsw/Pins.c **** */
  12:source\bsw/Pins.c **** 
  13:source\bsw/Pins.c **** #include "Pins.h"
  14:source\bsw/Pins.c **** 
  15:source\bsw/Pins.c **** /* Initialize pins */
  16:source\bsw/Pins.c **** void Pins_Init(void)
  17:source\bsw/Pins.c **** {
  28              		.loc 1 17 0
  29              		.cfi_startproc
  30              		@ args = 0, pretend = 0, frame = 0
  31              		@ frame_needed = 0, uses_anonymous_args = 0
  32 0000 08B5     		push	{r3, lr}
  33              		.cfi_def_cfa_offset 8
  34              		.cfi_offset 3, -8
  35              		.cfi_offset 14, -4
  18:source\bsw/Pins.c ****     /* Set each pin to low */
  19:source\bsw/Pins.c ****     RED_LED_Write(0U);      // Pin 1
  36              		.loc 1 19 0
  37 0002 0020     		movs	r0, #0
  38 0004 FFF7FEFF 		bl	RED_LED_Write
ARM GAS  C:\Users\agila\AppData\Local\Temp\ccpc1Loz.s 			page 2


  39              	.LVL0:
  20:source\bsw/Pins.c ****     YELLOW_LED_Write(0U);   // Pin 2
  40              		.loc 1 20 0
  41 0008 0020     		movs	r0, #0
  42 000a FFF7FEFF 		bl	YELLOW_LED_Write
  43              	.LVL1:
  21:source\bsw/Pins.c ****     GREEN_LED_Write(0U);    // Pin 3
  44              		.loc 1 21 0
  45 000e 0020     		movs	r0, #0
  46 0010 FFF7FEFF 		bl	GREEN_LED_Write
  47              	.LVL2:
  48 0014 08BD     		pop	{r3, pc}
  49              		.cfi_endproc
  50              	.LFE63:
  51              		.size	Pins_Init, .-Pins_Init
  52 0016 00BF     		.section	.text.Pin_1_Control,"ax",%progbits
  53              		.align	2
  54              		.global	Pin_1_Control
  55              		.thumb
  56              		.thumb_func
  57              		.type	Pin_1_Control, %function
  58              	Pin_1_Control:
  59              	.LFB64:
  22:source\bsw/Pins.c **** }
  23:source\bsw/Pins.c **** 
  24:source\bsw/Pins.c **** /* Wrappers for RED LED */
  25:source\bsw/Pins.c **** void Pin_1_Control(uint8_t state)
  26:source\bsw/Pins.c **** {
  60              		.loc 1 26 0
  61              		.cfi_startproc
  62              		@ args = 0, pretend = 0, frame = 0
  63              		@ frame_needed = 0, uses_anonymous_args = 0
  64              	.LVL3:
  65 0000 08B5     		push	{r3, lr}
  66              		.cfi_def_cfa_offset 8
  67              		.cfi_offset 3, -8
  68              		.cfi_offset 14, -4
  27:source\bsw/Pins.c ****     RED_LED_Write(state);
  69              		.loc 1 27 0
  70 0002 FFF7FEFF 		bl	RED_LED_Write
  71              	.LVL4:
  72 0006 08BD     		pop	{r3, pc}
  73              		.cfi_endproc
  74              	.LFE64:
  75              		.size	Pin_1_Control, .-Pin_1_Control
  76              		.section	.text.Pin_2_Control,"ax",%progbits
  77              		.align	2
  78              		.global	Pin_2_Control
  79              		.thumb
  80              		.thumb_func
  81              		.type	Pin_2_Control, %function
  82              	Pin_2_Control:
  83              	.LFB65:
  28:source\bsw/Pins.c **** }
  29:source\bsw/Pins.c **** 
  30:source\bsw/Pins.c **** /* Wrappers for YELLOW LED */
  31:source\bsw/Pins.c **** void Pin_2_Control(uint8_t state)
ARM GAS  C:\Users\agila\AppData\Local\Temp\ccpc1Loz.s 			page 3


  32:source\bsw/Pins.c **** {
  84              		.loc 1 32 0
  85              		.cfi_startproc
  86              		@ args = 0, pretend = 0, frame = 0
  87              		@ frame_needed = 0, uses_anonymous_args = 0
  88              	.LVL5:
  89 0000 08B5     		push	{r3, lr}
  90              		.cfi_def_cfa_offset 8
  91              		.cfi_offset 3, -8
  92              		.cfi_offset 14, -4
  33:source\bsw/Pins.c ****     YELLOW_LED_Write(state);
  93              		.loc 1 33 0
  94 0002 FFF7FEFF 		bl	YELLOW_LED_Write
  95              	.LVL6:
  96 0006 08BD     		pop	{r3, pc}
  97              		.cfi_endproc
  98              	.LFE65:
  99              		.size	Pin_2_Control, .-Pin_2_Control
 100              		.section	.text.Pin_3_Control,"ax",%progbits
 101              		.align	2
 102              		.global	Pin_3_Control
 103              		.thumb
 104              		.thumb_func
 105              		.type	Pin_3_Control, %function
 106              	Pin_3_Control:
 107              	.LFB66:
  34:source\bsw/Pins.c **** }
  35:source\bsw/Pins.c **** 
  36:source\bsw/Pins.c **** /* Wrappers for GREEN LED */
  37:source\bsw/Pins.c **** void Pin_3_Control(uint8_t state)
  38:source\bsw/Pins.c **** {
 108              		.loc 1 38 0
 109              		.cfi_startproc
 110              		@ args = 0, pretend = 0, frame = 0
 111              		@ frame_needed = 0, uses_anonymous_args = 0
 112              	.LVL7:
 113 0000 08B5     		push	{r3, lr}
 114              		.cfi_def_cfa_offset 8
 115              		.cfi_offset 3, -8
 116              		.cfi_offset 14, -4
  39:source\bsw/Pins.c ****     GREEN_LED_Write(state);
 117              		.loc 1 39 0
 118 0002 FFF7FEFF 		bl	GREEN_LED_Write
 119              	.LVL8:
 120 0006 08BD     		pop	{r3, pc}
 121              		.cfi_endproc
 122              	.LFE66:
 123              		.size	Pin_3_Control, .-Pin_3_Control
 124              		.comm	Pin_t,1,1
 125              		.text
 126              	.Letext0:
 127              		.file 2 "c:\\h_da softwares & projects\\psoc creator\\4.4\\psoc creator\\import\\gnu\\arm\\5.4.1\\
 128              		.file 3 "c:\\h_da softwares & projects\\psoc creator\\4.4\\psoc creator\\import\\gnu\\arm\\5.4.1\\
 129              		.file 4 "Generated_Source\\PSoC5/core_cm3.h"
 130              		.file 5 "source\\bsw\\Pins.h"
 131              		.file 6 "Generated_Source\\PSoC5/RED_LED.h"
 132              		.file 7 "Generated_Source\\PSoC5/YELLOW_LED.h"
ARM GAS  C:\Users\agila\AppData\Local\Temp\ccpc1Loz.s 			page 4


 133              		.file 8 "Generated_Source\\PSoC5/GREEN_LED.h"