ARM GAS  C:\Users\agila\AppData\Local\Temp\ccG0E307.s 			page 1


   1              		.syntax unified
   2              		.cpu cortex-m3
   3              		.fpu softvfp
   4              		.eabi_attribute 20, 1
   5              		.eabi_attribute 21, 1
   6              		.eabi_attribute 23, 3
   7              		.eabi_attribute 24, 1
   8              		.eabi_attribute 25, 1
   9              		.eabi_attribute 26, 1
  10              		.eabi_attribute 30, 1
  11              		.eabi_attribute 34, 1
  12              		.eabi_attribute 18, 4
  13              		.thumb
  14              		.syntax unified
  15              		.file	"TimingAnalyzer.c"
  16              		.text
  17              	.Ltext0:
  18              		.cfi_sections	.debug_frame
  19              		.section	.text.SysTick_Handler,"ax",%progbits
  20              		.align	2
  21              		.global	SysTick_Handler
  22              		.thumb
  23              		.thumb_func
  24              		.type	SysTick_Handler, %function
  25              	SysTick_Handler:
  26              	.LFB75:
  27              		.file 1 "source\\asw\\TimingAnalyzer.c"
   1:source\asw/TimingAnalyzer.c **** /**
   2:source\asw/TimingAnalyzer.c **** * \file <CAnalyzer.c>
   3:source\asw/TimingAnalyzer.c **** * \author <AGILAN V S>
   4:source\asw/TimingAnalyzer.c **** * \date <22-10-2025>
   5:source\asw/TimingAnalyzer.c **** *
   6:source\asw/TimingAnalyzer.c **** * \brief <Symbolic File name>   // ???
   7:source\asw/TimingAnalyzer.c **** *
   8:source\asw/TimingAnalyzer.c **** * \copyright Copyright ©2016
   9:source\asw/TimingAnalyzer.c **** * Department of electrical engineering and information technology, Hochschule Darmstadt - Universit
  10:source\asw/TimingAnalyzer.c **** * Permission to use, copy, modify, and distribute this software and its documentation for education
  11:source\asw/TimingAnalyzer.c **** * (unless permitted by h_da) and official h_da projects, is hereby granted for enrolled students of
  12:source\asw/TimingAnalyzer.c **** * this paragraph and the following paragraph appear in all copies, modifications, and distributions
  13:source\asw/TimingAnalyzer.c **** * Contact Prof.Dr.-Ing. Peter Fromm, peter.fromm@h-da.de, Birkenweg 8 64295 Darmstadt - GERMANY for
  14:source\asw/TimingAnalyzer.c **** *
  15:source\asw/TimingAnalyzer.c **** * \warning This software is a PROTOTYPE version and is not designed or intended for use in producti
  16:source\asw/TimingAnalyzer.c **** * The user represents and warrants that it will NOT use or redistribute the Software for such purpo
  17:source\asw/TimingAnalyzer.c **** * This prototype is for research purposes only. This software is provided "AS IS," without a warran
  18:source\asw/TimingAnalyzer.c **** */
  19:source\asw/TimingAnalyzer.c **** 
  20:source\asw/TimingAnalyzer.c **** /*****************************************************************************/
  21:source\asw/TimingAnalyzer.c **** /* Include files                                                             */
  22:source\asw/TimingAnalyzer.c **** /*****************************************************************************/
  23:source\asw/TimingAnalyzer.c **** #include <stdio.h>
  24:source\asw/TimingAnalyzer.c **** #include <string.h>
  25:source\asw/TimingAnalyzer.c **** #include "project.h"
  26:source\asw/TimingAnalyzer.c **** #include "TimingAnalyzer.h"
  27:source\asw/TimingAnalyzer.c **** #include "Pins.h"
  28:source\asw/TimingAnalyzer.c **** #include "UART_LOG.h"
  29:source\asw/TimingAnalyzer.c **** 
  30:source\asw/TimingAnalyzer.c **** /*****************************************************************************/
ARM GAS  C:\Users\agila\AppData\Local\Temp\ccG0E307.s 			page 2


  31:source\asw/TimingAnalyzer.c **** /* Local pre-processor symbols/macros ('#define')                            */
  32:source\asw/TimingAnalyzer.c **** /*****************************************************************************/ 
  33:source\asw/TimingAnalyzer.c **** // MISRA Rule 12.1/12.2 : Avoid magic numbers. Use symbolic constants. (We replaced all numeric lit
  34:source\asw/TimingAnalyzer.c **** // MISRA Rule 8.12 (2004) : Use #define or const for magic numbers. (Fully compliant (uses macros))
  35:source\asw/TimingAnalyzer.c **** // MISRA Rule 10.3 : Implicit conversions should be avoided. (All constants use explicit suffix UL 
  36:source\asw/TimingAnalyzer.c **** #define TA_MAX_ANALYZERS           (10UL)
  37:source\asw/TimingAnalyzer.c **** #define TA_MAX_PINS                (3UL)
  38:source\asw/TimingAnalyzer.c **** #define TA_MAX_MODES               (5UL)
  39:source\asw/TimingAnalyzer.c **** #define TA_SYSTICK_RELOAD_VALUE    ((BCLK__BUS_CLK__HZ / 1000UL) - 1UL)
  40:source\asw/TimingAnalyzer.c **** #define TA_SYSTICK_RESET_VALUE     (0UL)
  41:source\asw/TimingAnalyzer.c **** #define TA_DWT_RESET_VALUE         (0UL)
  42:source\asw/TimingAnalyzer.c **** #define TA_MAX_32BIT_VALUE         (4294967295UL)   /* 0xFFFFFFFFUL */
  43:source\asw/TimingAnalyzer.c **** #define TA_COUNTER_INCREMENT       (1UL)
  44:source\asw/TimingAnalyzer.c **** #define TA_SCALE_FACTOR            (1000000UL) /* 10^6 for 6 decimal places */
  45:source\asw/TimingAnalyzer.c **** 
  46:source\asw/TimingAnalyzer.c **** /*****************************************************************************/
  47:source\asw/TimingAnalyzer.c **** /* Global variable definitions (declared in header file with 'extern')       */
  48:source\asw/TimingAnalyzer.c **** /*****************************************************************************/
  49:source\asw/TimingAnalyzer.c **** 
  50:source\asw/TimingAnalyzer.c **** /*****************************************************************************/
  51:source\asw/TimingAnalyzer.c **** /* Local type definitions ('typedef')                                        */
  52:source\asw/TimingAnalyzer.c **** /*****************************************************************************/
  53:source\asw/TimingAnalyzer.c **** 
  54:source\asw/TimingAnalyzer.c **** /*****************************************************************************/
  55:source\asw/TimingAnalyzer.c **** /* Local variable definitions ('static')                                     */
  56:source\asw/TimingAnalyzer.c **** /*****************************************************************************/
  57:source\asw/TimingAnalyzer.c **** static TA_t* ta_g_analyzers[TA_MAX_ANALYZERS];    //  (N5)
  58:source\asw/TimingAnalyzer.c **** static uint8_t ta_g_analyzer_count = 0U;
  59:source\asw/TimingAnalyzer.c **** volatile static uint32_t ta_g_system_ms = 0UL; // Global millisecond counter
  60:source\asw/TimingAnalyzer.c **** 
  61:source\asw/TimingAnalyzer.c **** /*****************************************************************************/
  62:source\asw/TimingAnalyzer.c **** /* Local function prototypes ('static')                                      */
  63:source\asw/TimingAnalyzer.c **** /*****************************************************************************/
  64:source\asw/TimingAnalyzer.c **** 
  65:source\asw/TimingAnalyzer.c **** /*****************************************************************************/
  66:source\asw/TimingAnalyzer.c **** /* Function implementation - global ('extern') and local ('static')          */
  67:source\asw/TimingAnalyzer.c **** /*****************************************************************************/
  68:source\asw/TimingAnalyzer.c **** 
  69:source\asw/TimingAnalyzer.c **** /**
  70:source\asw/TimingAnalyzer.c ****  * Func to initialize of the necessary peripherals like Set up SysTick timer (1 ms), enable DWT cou
  71:source\asw/TimingAnalyzer.c ****  * \param None
  72:source\asw/TimingAnalyzer.c ****  * \return RC_SUCCESS when success and RC_ERROR_INVALID_STATE when Hardware not properly initilized
  73:source\asw/TimingAnalyzer.c **** */
  74:source\asw/TimingAnalyzer.c **** RC_t TA_init(void)
  75:source\asw/TimingAnalyzer.c **** {
  76:source\asw/TimingAnalyzer.c ****     RC_t res = RC_SUCCESS;
  77:source\asw/TimingAnalyzer.c ****     
  78:source\asw/TimingAnalyzer.c ****     // Initialize SysTick timer (1 ms) // Will cause issues with OS's cnt_systick - Use respective 
  79:source\asw/TimingAnalyzer.c ****     CySysTickInit();									// Activate Systick counter     // (N7)
  80:source\asw/TimingAnalyzer.c **** 	CySysTickSetCallback(0, SysTick_Handler);           // Set ISR for Systick
  81:source\asw/TimingAnalyzer.c **** 	CySysTickSetReload(BCLK__BUS_CLK__HZ / 1000 - 1);   // Set 1ms cycle Time
  82:source\asw/TimingAnalyzer.c **** 	CySysTickEnable();									// Enable the Callback of the systick
  83:source\asw/TimingAnalyzer.c **** 
  84:source\asw/TimingAnalyzer.c ****     ta_g_system_ms = 0;      // Reset the global time counter
  85:source\asw/TimingAnalyzer.c ****     
  86:source\asw/TimingAnalyzer.c ****     // Enable DWT Cycle Counter                                                                 // 
  87:source\asw/TimingAnalyzer.c ****     CoreDebug->DEMCR    |= CoreDebug_DEMCR_TRCENA_Msk;     // Activate the trace unit
ARM GAS  C:\Users\agila\AppData\Local\Temp\ccG0E307.s 			page 3


  88:source\asw/TimingAnalyzer.c ****     DWT->CYCCNT          = TA_DWT_RESET_VALUE;             // Resets the cycle counter          // 
  89:source\asw/TimingAnalyzer.c ****     DWT->CTRL           |= DWT_CTRL_CYCCNTENA_Msk;         // Starts the DWT counter running    // 
  90:source\asw/TimingAnalyzer.c **** 
  91:source\asw/TimingAnalyzer.c ****     // Set the pins low initially
  92:source\asw/TimingAnalyzer.c ****     Pins_Init();
  93:source\asw/TimingAnalyzer.c ****     
  94:source\asw/TimingAnalyzer.c ****     return res;
  95:source\asw/TimingAnalyzer.c **** }
  96:source\asw/TimingAnalyzer.c **** 
  97:source\asw/TimingAnalyzer.c **** /**
  98:source\asw/TimingAnalyzer.c ****  * Func to initializes an analyzer struct with configuration and assign function pointers for pin c
  99:source\asw/TimingAnalyzer.c ****  * \param TA_t *const me                : [IN/OUT] struct of Analyzer related parameters
 100:source\asw/TimingAnalyzer.c ****  * \param TA_Mode_t const mode          : [IN] type of the configuration mode we need to run the an
 101:source\asw/TimingAnalyzer.c ****  * \param TA_PinFunc_t const pin_ctrl   : [IN] func pointer to control a GPIO pin
 102:source\asw/TimingAnalyzer.c ****  * \param const char const *name        : [IN] name of the Analyzer
 103:source\asw/TimingAnalyzer.c ****  * \return RC_SUCCESS when success, RC_ERROR_NULL when a pointer param is null
 104:source\asw/TimingAnalyzer.c ****  *         RC_ERROR_BAD_PARAM when unexpected params are passed and 
 105:source\asw/TimingAnalyzer.c ****  *         RC_ERROR_BUFFER_FULL when max analyzer count is reached
 106:source\asw/TimingAnalyzer.c **** */
 107:source\asw/TimingAnalyzer.c **** RC_t TA_create(TA_t *const me, TA_Mode_t const mode, TA_PinFunc_t const pin_ctrl, const char* const
 108:source\asw/TimingAnalyzer.c **** {
 109:source\asw/TimingAnalyzer.c ****     RC_t res = RC_SUCCESS;
 110:source\asw/TimingAnalyzer.c ****     
 111:source\asw/TimingAnalyzer.c ****     // Validate the input
 112:source\asw/TimingAnalyzer.c ****     if (me == NULL_PTR || name == NULL_PTR) // warning Nullprt == me? All comparisions - datatypes 
 113:source\asw/TimingAnalyzer.c ****     {
 114:source\asw/TimingAnalyzer.c ****         return RC_ERROR_NULL ;              // Can we compare a conatant value with the desired val
 115:source\asw/TimingAnalyzer.c ****     }
 116:source\asw/TimingAnalyzer.c ****     
 117:source\asw/TimingAnalyzer.c ****     if ((TA_MODE_DWT_PIN == mode || TA_MODE_SYSTICK_PIN == mode || TA_MODE_PIN == mode) && (pin_ctr
 118:source\asw/TimingAnalyzer.c ****     {
 119:source\asw/TimingAnalyzer.c ****         return RC_ERROR_NULL;
 120:source\asw/TimingAnalyzer.c ****     }
 121:source\asw/TimingAnalyzer.c ****     
 122:source\asw/TimingAnalyzer.c ****     if (strlen(name) == 0UL || mode > TA_MAX_MODES)
 123:source\asw/TimingAnalyzer.c ****     {
 124:source\asw/TimingAnalyzer.c ****         return RC_ERROR_BAD_PARAM;
 125:source\asw/TimingAnalyzer.c ****     }
 126:source\asw/TimingAnalyzer.c ****     
 127:source\asw/TimingAnalyzer.c ****     if ((TA_MODE_DWT == mode || TA_MODE_SYSTICK == mode) && (pin_ctrl == NULL_PTR)) 
 128:source\asw/TimingAnalyzer.c ****     {
 129:source\asw/TimingAnalyzer.c ****         return RC_ERROR_BAD_PARAM;
 130:source\asw/TimingAnalyzer.c ****     }
 131:source\asw/TimingAnalyzer.c ****     
 132:source\asw/TimingAnalyzer.c ****     if(ta_g_analyzer_count >= TA_MAX_ANALYZERS)
 133:source\asw/TimingAnalyzer.c ****     {
 134:source\asw/TimingAnalyzer.c ****         res = RC_ERROR_BUFFER_FULL;
 135:source\asw/TimingAnalyzer.c ****     }
 136:source\asw/TimingAnalyzer.c ****     
 137:source\asw/TimingAnalyzer.c ****     // Add to global analyzer list
 138:source\asw/TimingAnalyzer.c ****     else
 139:source\asw/TimingAnalyzer.c ****     {
 140:source\asw/TimingAnalyzer.c ****         ta_g_analyzers[ta_g_analyzer_count++] = me;
 141:source\asw/TimingAnalyzer.c ****     
 142:source\asw/TimingAnalyzer.c ****         // Clear the entire struct first
 143:source\asw/TimingAnalyzer.c ****         memset(me, 0, sizeof(TA_t));
 144:source\asw/TimingAnalyzer.c ****     
ARM GAS  C:\Users\agila\AppData\Local\Temp\ccG0E307.s 			page 4


 145:source\asw/TimingAnalyzer.c ****         // Storing the info
 146:source\asw/TimingAnalyzer.c ****         me->mode    = mode;
 147:source\asw/TimingAnalyzer.c ****         me->state   = TA_STATE_IDLE;
 148:source\asw/TimingAnalyzer.c ****         me->name    = name;
 149:source\asw/TimingAnalyzer.c ****     
 150:source\asw/TimingAnalyzer.c ****         // Initialize the timing fields
 151:source\asw/TimingAnalyzer.c ****         me->start_time      = 0UL;
 152:source\asw/TimingAnalyzer.c ****         me->stop_time       = 0UL;
 153:source\asw/TimingAnalyzer.c ****         me->elapsed_time    = 0UL;
 154:source\asw/TimingAnalyzer.c ****         
 155:source\asw/TimingAnalyzer.c ****         // Assign pin control function pointers
 156:source\asw/TimingAnalyzer.c ****         me->pin_control_func = pin_ctrl;
 157:source\asw/TimingAnalyzer.c ****     }
 158:source\asw/TimingAnalyzer.c ****     return res;
 159:source\asw/TimingAnalyzer.c **** }
 160:source\asw/TimingAnalyzer.c **** 
 161:source\asw/TimingAnalyzer.c **** /**
 162:source\asw/TimingAnalyzer.c ****  * Func to start counting using SysTick or DWT and set pin HIGH if configured.
 163:source\asw/TimingAnalyzer.c ****  * \param TA_t *const me            : [IN/OUT] struct of Analyzer related parameters
 164:source\asw/TimingAnalyzer.c ****  * \return RC_SUCCESS when success, RC_ERROR_NULL when the me pointer is null, 
 165:source\asw/TimingAnalyzer.c ****  *         RC_ERROR_INVALID_STATE when analyzer is not in any active state and/or when Hardware not
 166:source\asw/TimingAnalyzer.c ****  *         RC_ERROR_BUSY when an analyzer is already in running state
 167:source\asw/TimingAnalyzer.c **** */
 168:source\asw/TimingAnalyzer.c **** RC_t TA_start(TA_t *const me)
 169:source\asw/TimingAnalyzer.c **** {
 170:source\asw/TimingAnalyzer.c ****     RC_t res = RC_SUCCESS;
 171:source\asw/TimingAnalyzer.c ****     
 172:source\asw/TimingAnalyzer.c ****     // Validate the input
 173:source\asw/TimingAnalyzer.c ****     if (me == NULL_PTR)
 174:source\asw/TimingAnalyzer.c ****     {
 175:source\asw/TimingAnalyzer.c ****         return RC_ERROR_NULL;
 176:source\asw/TimingAnalyzer.c ****     }
 177:source\asw/TimingAnalyzer.c ****     
 178:source\asw/TimingAnalyzer.c ****     // Check state - If already running, invalid call
 179:source\asw/TimingAnalyzer.c ****     if (TA_STATE_RUNNING == me->state)
 180:source\asw/TimingAnalyzer.c ****     {
 181:source\asw/TimingAnalyzer.c ****         return RC_ERROR_BUSY;
 182:source\asw/TimingAnalyzer.c ****     }
 183:source\asw/TimingAnalyzer.c ****     
 184:source\asw/TimingAnalyzer.c ****     // Handle pin output first for precision
 185:source\asw/TimingAnalyzer.c ****     if ((TA_MODE_SYSTICK_PIN == me->mode) || (TA_MODE_DWT_PIN  == me->mode) || (TA_MODE_PIN  == me-
 186:source\asw/TimingAnalyzer.c ****     {
 187:source\asw/TimingAnalyzer.c ****         if (me->pin_control_func != NULL_PTR)
 188:source\asw/TimingAnalyzer.c ****         {
 189:source\asw/TimingAnalyzer.c ****             me->pin_control_func(1U);   /* Turn ON pin */
 190:source\asw/TimingAnalyzer.c ****         } else {
 191:source\asw/TimingAnalyzer.c ****             return RC_ERROR_NULL;
 192:source\asw/TimingAnalyzer.c ****         }
 193:source\asw/TimingAnalyzer.c ****     }
 194:source\asw/TimingAnalyzer.c ****     
 195:source\asw/TimingAnalyzer.c ****     // Fetching the counter FIRST for precision
 196:source\asw/TimingAnalyzer.c ****     if (TA_MODE_SYSTICK == me->mode || TA_MODE_SYSTICK_PIN  == me->mode) {
 197:source\asw/TimingAnalyzer.c ****         // SysTick counts in ms
 198:source\asw/TimingAnalyzer.c ****         me->start_time = ta_g_system_ms;  // Start a cycle interval
 199:source\asw/TimingAnalyzer.c ****     } else if (TA_MODE_DWT  == me->mode || TA_MODE_DWT_PIN  == me->mode) {
 200:source\asw/TimingAnalyzer.c ****         // DWT->CYCCNT = current CPU cycle count
 201:source\asw/TimingAnalyzer.c ****         me->start_time = DWT->CYCCNT;  // Start a cycle interval
ARM GAS  C:\Users\agila\AppData\Local\Temp\ccG0E307.s 			page 5


 202:source\asw/TimingAnalyzer.c ****     } else {
 203:source\asw/TimingAnalyzer.c ****         // TA_MODE_PIN only - do nothing
 204:source\asw/TimingAnalyzer.c ****     }
 205:source\asw/TimingAnalyzer.c **** 
 206:source\asw/TimingAnalyzer.c ****     // Update state
 207:source\asw/TimingAnalyzer.c ****     me->state = TA_STATE_RUNNING;
 208:source\asw/TimingAnalyzer.c ****     
 209:source\asw/TimingAnalyzer.c ****     return res;
 210:source\asw/TimingAnalyzer.c **** }
 211:source\asw/TimingAnalyzer.c **** 
 212:source\asw/TimingAnalyzer.c **** /**
 213:source\asw/TimingAnalyzer.c ****  * Func to stop counting temporarily and add elapsed time since start to total time.
 214:source\asw/TimingAnalyzer.c ****  * \param TA_t *const me            : [IN/OUT] struct of Analyzer related parameters
 215:source\asw/TimingAnalyzer.c ****  * \return RC_SUCCESS when success, RC_ERROR_NULL when the me pointer is null and 
 216:source\asw/TimingAnalyzer.c ****  *         RC_ERROR_INVALID_STATE when analyzer is not in any active state and/or not running
 217:source\asw/TimingAnalyzer.c **** */
 218:source\asw/TimingAnalyzer.c **** RC_t TA_pause(TA_t *const me)
 219:source\asw/TimingAnalyzer.c **** {
 220:source\asw/TimingAnalyzer.c ****     RC_t res = RC_SUCCESS;
 221:source\asw/TimingAnalyzer.c ****     
 222:source\asw/TimingAnalyzer.c ****     // Validate the input
 223:source\asw/TimingAnalyzer.c ****     if (me == NULL_PTR)
 224:source\asw/TimingAnalyzer.c ****     {
 225:source\asw/TimingAnalyzer.c ****         return RC_ERROR_NULL;
 226:source\asw/TimingAnalyzer.c ****     }
 227:source\asw/TimingAnalyzer.c ****     
 228:source\asw/TimingAnalyzer.c ****     // Check state - Can only pause when running
 229:source\asw/TimingAnalyzer.c ****     if (TA_STATE_RUNNING != me->state)
 230:source\asw/TimingAnalyzer.c ****     {
 231:source\asw/TimingAnalyzer.c ****         return RC_ERROR_INVALID_STATE;
 232:source\asw/TimingAnalyzer.c ****     }
 233:source\asw/TimingAnalyzer.c ****     
 234:source\asw/TimingAnalyzer.c ****     // Fetching the counter FIRST for precision
 235:source\asw/TimingAnalyzer.c ****     if (TA_MODE_SYSTICK == me->mode || TA_MODE_SYSTICK_PIN == me->mode) {
 236:source\asw/TimingAnalyzer.c ****         // SysTick counts in ms
 237:source\asw/TimingAnalyzer.c ****         me->stop_time = ta_g_system_ms;  // Stop current cycle interval
 238:source\asw/TimingAnalyzer.c ****         
 239:source\asw/TimingAnalyzer.c ****     } else if (TA_MODE_DWT == me->mode || TA_MODE_DWT_PIN == me->mode) {
 240:source\asw/TimingAnalyzer.c ****         // DWT cycle counter
 241:source\asw/TimingAnalyzer.c ****         me->stop_time = DWT->CYCCNT;  // Stop current cycle interval
 242:source\asw/TimingAnalyzer.c ****         
 243:source\asw/TimingAnalyzer.c ****     } else {
 244:source\asw/TimingAnalyzer.c ****         // TA_MODE_PIN only - do nothing
 245:source\asw/TimingAnalyzer.c ****     }
 246:source\asw/TimingAnalyzer.c ****     
 247:source\asw/TimingAnalyzer.c ****     res = TA_calculateElapsedTime(me);
 248:source\asw/TimingAnalyzer.c ****     
 249:source\asw/TimingAnalyzer.c ****     // Pin LOW to show pause
 250:source\asw/TimingAnalyzer.c ****     if ((TA_MODE_SYSTICK_PIN == me->mode) || (TA_MODE_DWT_PIN == me->mode) || (TA_MODE_PIN == me->m
 251:source\asw/TimingAnalyzer.c ****     {
 252:source\asw/TimingAnalyzer.c ****         if (me->pin_control_func != NULL_PTR)
 253:source\asw/TimingAnalyzer.c ****         {
 254:source\asw/TimingAnalyzer.c ****             me->pin_control_func(0U); /* Turn OFF pin */
 255:source\asw/TimingAnalyzer.c ****         } else {
 256:source\asw/TimingAnalyzer.c ****             return RC_ERROR_NULL;
 257:source\asw/TimingAnalyzer.c ****         }
 258:source\asw/TimingAnalyzer.c ****     }
ARM GAS  C:\Users\agila\AppData\Local\Temp\ccG0E307.s 			page 6


 259:source\asw/TimingAnalyzer.c ****     
 260:source\asw/TimingAnalyzer.c ****     // Update state
 261:source\asw/TimingAnalyzer.c ****     me->state = TA_STATE_PAUSED;
 262:source\asw/TimingAnalyzer.c ****     
 263:source\asw/TimingAnalyzer.c ****     return res;
 264:source\asw/TimingAnalyzer.c **** }
 265:source\asw/TimingAnalyzer.c **** 
 266:source\asw/TimingAnalyzer.c **** /**
 267:source\asw/TimingAnalyzer.c ****  * Func to resume measurement from paused state.
 268:source\asw/TimingAnalyzer.c ****  * \param TA_t *const me            : [IN/OUT] struct of Analyzer related parameters
 269:source\asw/TimingAnalyzer.c ****  * \return RC_SUCCESS when success, RC_ERROR_NULL when the me pointer is null, 
 270:source\asw/TimingAnalyzer.c ****  *         RC_ERROR_INVALID_STATE when analyzer is not in any active state and/or not paused
 271:source\asw/TimingAnalyzer.c **** */
 272:source\asw/TimingAnalyzer.c **** RC_t TA_resume(TA_t *const me)
 273:source\asw/TimingAnalyzer.c **** {
 274:source\asw/TimingAnalyzer.c ****     RC_t res = RC_SUCCESS;
 275:source\asw/TimingAnalyzer.c ****     
 276:source\asw/TimingAnalyzer.c ****     // Validate the input
 277:source\asw/TimingAnalyzer.c ****     if (me == NULL_PTR)
 278:source\asw/TimingAnalyzer.c ****     {
 279:source\asw/TimingAnalyzer.c ****         return RC_ERROR_NULL;
 280:source\asw/TimingAnalyzer.c ****     }
 281:source\asw/TimingAnalyzer.c ****     
 282:source\asw/TimingAnalyzer.c ****     // Check state - Can only resume if paused
 283:source\asw/TimingAnalyzer.c ****     if (TA_STATE_PAUSED != me->state)
 284:source\asw/TimingAnalyzer.c ****     {
 285:source\asw/TimingAnalyzer.c ****         return RC_ERROR_INVALID_STATE;
 286:source\asw/TimingAnalyzer.c ****     }
 287:source\asw/TimingAnalyzer.c ****     
 288:source\asw/TimingAnalyzer.c ****     // Pin HIGH to indicate resumed timing
 289:source\asw/TimingAnalyzer.c ****     if ((TA_MODE_SYSTICK_PIN == me->mode) || (TA_MODE_DWT_PIN == me->mode) || (TA_MODE_PIN == me->m
 290:source\asw/TimingAnalyzer.c ****     {
 291:source\asw/TimingAnalyzer.c ****         if (me->pin_control_func != NULL_PTR)
 292:source\asw/TimingAnalyzer.c ****         {
 293:source\asw/TimingAnalyzer.c ****            me->pin_control_func(1U);   /* Turn ON pin */
 294:source\asw/TimingAnalyzer.c ****         } else {
 295:source\asw/TimingAnalyzer.c ****             return RC_ERROR_NULL;
 296:source\asw/TimingAnalyzer.c ****         }
 297:source\asw/TimingAnalyzer.c ****     }
 298:source\asw/TimingAnalyzer.c ****     
 299:source\asw/TimingAnalyzer.c ****     // Fetching the counter FIRST for precision
 300:source\asw/TimingAnalyzer.c ****     if (TA_MODE_SYSTICK == me->mode || TA_MODE_SYSTICK_PIN == me->mode) {
 301:source\asw/TimingAnalyzer.c ****        // SysTick counts in ms
 302:source\asw/TimingAnalyzer.c ****         me->start_time = ta_g_system_ms;  // Start new cycle interval
 303:source\asw/TimingAnalyzer.c ****     } else if (TA_MODE_DWT == me->mode || TA_MODE_DWT_PIN == me->mode) {
 304:source\asw/TimingAnalyzer.c ****         // DWT cycle counter
 305:source\asw/TimingAnalyzer.c ****         me->start_time = DWT->CYCCNT;  // Start new cycle interval
 306:source\asw/TimingAnalyzer.c ****     } else {      
 307:source\asw/TimingAnalyzer.c ****         // TA_MODE_PIN only - do nothing
 308:source\asw/TimingAnalyzer.c ****     }
 309:source\asw/TimingAnalyzer.c ****     
 310:source\asw/TimingAnalyzer.c ****     // Update state
 311:source\asw/TimingAnalyzer.c ****     me->state = TA_STATE_RUNNING;
 312:source\asw/TimingAnalyzer.c ****     
 313:source\asw/TimingAnalyzer.c ****     return res;
 314:source\asw/TimingAnalyzer.c **** }
 315:source\asw/TimingAnalyzer.c **** 
ARM GAS  C:\Users\agila\AppData\Local\Temp\ccG0E307.s 			page 7


 316:source\asw/TimingAnalyzer.c **** /**
 317:source\asw/TimingAnalyzer.c ****  * Func to stop counting, calculate total time, and set pin LOW.
 318:source\asw/TimingAnalyzer.c ****  * \param TA_t *const me            : [IN/OUT] struct of Analyzer related parameters
 319:source\asw/TimingAnalyzer.c ****  * \return RC_SUCCESS when success, RC_ERROR_NULL when the me pointer is null and 
 320:source\asw/TimingAnalyzer.c ****  *         RC_ERROR_INVALID_STATE when analyzer is not in any active state and/or already stopped
 321:source\asw/TimingAnalyzer.c **** */
 322:source\asw/TimingAnalyzer.c **** RC_t TA_stop(TA_t *const me)
 323:source\asw/TimingAnalyzer.c **** {
 324:source\asw/TimingAnalyzer.c ****     RC_t res = RC_SUCCESS;
 325:source\asw/TimingAnalyzer.c ****     
 326:source\asw/TimingAnalyzer.c ****     // Validate the input
 327:source\asw/TimingAnalyzer.c ****     if (me == NULL_PTR)
 328:source\asw/TimingAnalyzer.c ****     {
 329:source\asw/TimingAnalyzer.c ****         return RC_ERROR_NULL;
 330:source\asw/TimingAnalyzer.c ****     }
 331:source\asw/TimingAnalyzer.c ****     
 332:source\asw/TimingAnalyzer.c ****     // Check state - Can only stop if running or paused
 333:source\asw/TimingAnalyzer.c ****     if (TA_STATE_RUNNING != me->state && TA_STATE_PAUSED != me->state) 
 334:source\asw/TimingAnalyzer.c ****     {
 335:source\asw/TimingAnalyzer.c ****         return RC_ERROR_INVALID_STATE;
 336:source\asw/TimingAnalyzer.c ****     }
 337:source\asw/TimingAnalyzer.c ****     
 338:source\asw/TimingAnalyzer.c ****     // Fetching the counter FIRST for precision
 339:source\asw/TimingAnalyzer.c ****     if (TA_MODE_SYSTICK == me->mode || TA_MODE_SYSTICK_PIN == me->mode) {
 340:source\asw/TimingAnalyzer.c ****         // SysTick counts in ms
 341:source\asw/TimingAnalyzer.c ****         me->stop_time = ta_g_system_ms;  // Stop the cycle interval        
 342:source\asw/TimingAnalyzer.c ****     } else if (TA_MODE_DWT == me->mode || TA_MODE_DWT_PIN == me->mode) {
 343:source\asw/TimingAnalyzer.c ****         // DWT cycle counter
 344:source\asw/TimingAnalyzer.c ****         me->stop_time = DWT->CYCCNT;  // Stop the cycle interval
 345:source\asw/TimingAnalyzer.c ****     } else {
 346:source\asw/TimingAnalyzer.c ****         // TA_MODE_PIN only - do nothing
 347:source\asw/TimingAnalyzer.c ****     }
 348:source\asw/TimingAnalyzer.c ****     
 349:source\asw/TimingAnalyzer.c ****     res = TA_calculateElapsedTime(me);
 350:source\asw/TimingAnalyzer.c ****     
 351:source\asw/TimingAnalyzer.c ****     // Clear pin after stopping
 352:source\asw/TimingAnalyzer.c ****     if ((TA_MODE_SYSTICK_PIN == me->mode) || (TA_MODE_DWT_PIN == me->mode) || (TA_MODE_PIN == me->m
 353:source\asw/TimingAnalyzer.c ****     {
 354:source\asw/TimingAnalyzer.c ****         if (me->pin_control_func != NULL_PTR)
 355:source\asw/TimingAnalyzer.c ****         {
 356:source\asw/TimingAnalyzer.c ****             me->pin_control_func(0U); /* Turn OFF pin */
 357:source\asw/TimingAnalyzer.c ****         } else {
 358:source\asw/TimingAnalyzer.c ****             return RC_ERROR_NULL;
 359:source\asw/TimingAnalyzer.c ****         }
 360:source\asw/TimingAnalyzer.c ****     }
 361:source\asw/TimingAnalyzer.c ****     
 362:source\asw/TimingAnalyzer.c ****     // Update state
 363:source\asw/TimingAnalyzer.c ****     me->state = TA_STATE_STOPPED;
 364:source\asw/TimingAnalyzer.c ****     
 365:source\asw/TimingAnalyzer.c ****     return res;
 366:source\asw/TimingAnalyzer.c **** }
 367:source\asw/TimingAnalyzer.c **** 
 368:source\asw/TimingAnalyzer.c **** /**
 369:source\asw/TimingAnalyzer.c ****  * Func to delete a previously created analyzer. Removes it from the global list and resets its con
 370:source\asw/TimingAnalyzer.c ****  * \param TA_t *const me            : [IN] Analyzer instance to be deleted
 371:source\asw/TimingAnalyzer.c ****  * \return RC_SUCCESS when success,
 372:source\asw/TimingAnalyzer.c ****  *         RC_ERROR_NULL when pointer is NULL,
ARM GAS  C:\Users\agila\AppData\Local\Temp\ccG0E307.s 			page 8


 373:source\asw/TimingAnalyzer.c ****  *         RC_ERROR_BAD_PARAM when analyzer not found
 374:source\asw/TimingAnalyzer.c ****  */
 375:source\asw/TimingAnalyzer.c **** RC_t TA_delete(TA_t *const me)
 376:source\asw/TimingAnalyzer.c **** {
 377:source\asw/TimingAnalyzer.c ****     RC_t res = RC_SUCCESS;
 378:source\asw/TimingAnalyzer.c ****     
 379:source\asw/TimingAnalyzer.c ****     uint8_t index = 0U;
 380:source\asw/TimingAnalyzer.c ****     boolean_t found = FALSE;
 381:source\asw/TimingAnalyzer.c **** 
 382:source\asw/TimingAnalyzer.c ****     if (me == NULL_PTR)
 383:source\asw/TimingAnalyzer.c ****     {
 384:source\asw/TimingAnalyzer.c ****         return RC_ERROR_NULL;
 385:source\asw/TimingAnalyzer.c ****     }
 386:source\asw/TimingAnalyzer.c **** 
 387:source\asw/TimingAnalyzer.c ****     // Search for analyzer in global list
 388:source\asw/TimingAnalyzer.c ****     for (index = 0U; index < ta_g_analyzer_count; index++)
 389:source\asw/TimingAnalyzer.c ****     {
 390:source\asw/TimingAnalyzer.c ****         if (ta_g_analyzers[index] == me)
 391:source\asw/TimingAnalyzer.c ****         {
 392:source\asw/TimingAnalyzer.c ****             found = TRUE;
 393:source\asw/TimingAnalyzer.c ****             break;
 394:source\asw/TimingAnalyzer.c ****         }
 395:source\asw/TimingAnalyzer.c ****     }
 396:source\asw/TimingAnalyzer.c **** 
 397:source\asw/TimingAnalyzer.c ****     if (found == FALSE)
 398:source\asw/TimingAnalyzer.c ****     {
 399:source\asw/TimingAnalyzer.c ****         return RC_ERROR_BAD_PARAM;   // Analyzer not found
 400:source\asw/TimingAnalyzer.c ****     }
 401:source\asw/TimingAnalyzer.c **** 
 402:source\asw/TimingAnalyzer.c ****     // Shift remaining analyzers left to keep array compact
 403:source\asw/TimingAnalyzer.c ****     for (uint8_t i = index; i < (ta_g_analyzer_count - 1U); i++)
 404:source\asw/TimingAnalyzer.c ****     {
 405:source\asw/TimingAnalyzer.c ****         ta_g_analyzers[i] = ta_g_analyzers[i + 1U];
 406:source\asw/TimingAnalyzer.c ****     }
 407:source\asw/TimingAnalyzer.c **** 
 408:source\asw/TimingAnalyzer.c ****     ta_g_analyzers[ta_g_analyzer_count - 1U] = NULL_PTR;
 409:source\asw/TimingAnalyzer.c ****     ta_g_analyzer_count--;
 410:source\asw/TimingAnalyzer.c **** 
 411:source\asw/TimingAnalyzer.c ****     // Reset the analyzer object itself
 412:source\asw/TimingAnalyzer.c ****     memset(me, 0, sizeof(TA_t));
 413:source\asw/TimingAnalyzer.c **** 
 414:source\asw/TimingAnalyzer.c ****     return res;
 415:source\asw/TimingAnalyzer.c **** }
 416:source\asw/TimingAnalyzer.c **** 
 417:source\asw/TimingAnalyzer.c **** /**
 418:source\asw/TimingAnalyzer.c ****  * Func to calculate the elapsed ticks/cycles between start and stop time.
 419:source\asw/TimingAnalyzer.c ****  * \param TA_t *const me            : [IN/OUT] struct of Analyzer related parameters
 420:source\asw/TimingAnalyzer.c ****  * \return RC_SUCCESS when success
 421:source\asw/TimingAnalyzer.c **** */
 422:source\asw/TimingAnalyzer.c **** RC_t TA_calculateElapsedTime(TA_t *const me)
 423:source\asw/TimingAnalyzer.c **** {
 424:source\asw/TimingAnalyzer.c ****     RC_t res = RC_SUCCESS;
 425:source\asw/TimingAnalyzer.c ****     
 426:source\asw/TimingAnalyzer.c ****     // Calculate the elapsed time
 427:source\asw/TimingAnalyzer.c ****     if (me->stop_time >= me->start_time)
 428:source\asw/TimingAnalyzer.c ****     {
 429:source\asw/TimingAnalyzer.c ****         me->elapsed_time = me->elapsed_time + (me->stop_time - me->start_time);
ARM GAS  C:\Users\agila\AppData\Local\Temp\ccG0E307.s 			page 9


 430:source\asw/TimingAnalyzer.c ****     } else {
 431:source\asw/TimingAnalyzer.c ****         /* Handle 32-bit wrap-around */
 432:source\asw/TimingAnalyzer.c ****         me->elapsed_time = me->elapsed_time + ((TA_MAX_32BIT_VALUE - me->start_time) + me->stop_tim
 433:source\asw/TimingAnalyzer.c ****     }
 434:source\asw/TimingAnalyzer.c ****     return res;
 435:source\asw/TimingAnalyzer.c **** }
 436:source\asw/TimingAnalyzer.c **** 
 437:source\asw/TimingAnalyzer.c **** /**
 438:source\asw/TimingAnalyzer.c ****  * Func which returns elapsed time in ms based on SysTick or DWT reading.
 439:source\asw/TimingAnalyzer.c ****  * \param TA_t const *const me      : [IN] struct of Analyzer related parameters
 440:source\asw/TimingAnalyzer.c ****  * \return time_ms an uint32_t variable holding calculated time in ms
 441:source\asw/TimingAnalyzer.c **** */
 442:source\asw/TimingAnalyzer.c **** uint32_t TA_getElapsedTimeInMs(TA_t *const me) // keep time_ms as global to keep the func with RC_t
 443:source\asw/TimingAnalyzer.c **** {
 444:source\asw/TimingAnalyzer.c ****     RC_t res = RC_SUCCESS;
 445:source\asw/TimingAnalyzer.c ****     
 446:source\asw/TimingAnalyzer.c ****     // Calculate the elapsed time in ms
 447:source\asw/TimingAnalyzer.c ****     uint32_t time_ms = me->elapsed_time / BCLK__BUS_CLK__KHZ; 
 448:source\asw/TimingAnalyzer.c **** 
 449:source\asw/TimingAnalyzer.c ****     return time_ms;
 450:source\asw/TimingAnalyzer.c **** }
 451:source\asw/TimingAnalyzer.c **** 
 452:source\asw/TimingAnalyzer.c **** /**
 453:source\asw/TimingAnalyzer.c ****  * Func which returns elapsed time based on SysTick or DWT reading.
 454:source\asw/TimingAnalyzer.c ****  * \param TA_t *const me        : [IN] struct of Analyzer related parameters
 455:source\asw/TimingAnalyzer.c ****  * \return RC_SUCCESS when success and RC_ERROR_NULL when the me pointer is null
 456:source\asw/TimingAnalyzer.c **** */
 457:source\asw/TimingAnalyzer.c **** RC_t TA_printStatus(TA_t *const me)
 458:source\asw/TimingAnalyzer.c **** {
 459:source\asw/TimingAnalyzer.c ****     RC_t res = RC_SUCCESS;
 460:source\asw/TimingAnalyzer.c ****     
 461:source\asw/TimingAnalyzer.c ****     // Validate the input
 462:source\asw/TimingAnalyzer.c ****     if (me == NULL_PTR)
 463:source\asw/TimingAnalyzer.c ****     {
 464:source\asw/TimingAnalyzer.c ****         return RC_ERROR_NULL;
 465:source\asw/TimingAnalyzer.c ****     }
 466:source\asw/TimingAnalyzer.c ****     
 467:source\asw/TimingAnalyzer.c ****     // Buffer to assemble string
 468:source\asw/TimingAnalyzer.c ****     char buffer[150]; 
 469:source\asw/TimingAnalyzer.c **** 
 470:source\asw/TimingAnalyzer.c ****     // Format state as string
 471:source\asw/TimingAnalyzer.c ****     const char* strState;
 472:source\asw/TimingAnalyzer.c ****     switch(me->state)
 473:source\asw/TimingAnalyzer.c ****     {
 474:source\asw/TimingAnalyzer.c ****         case TA_STATE_IDLE:
 475:source\asw/TimingAnalyzer.c ****             strState = "IDLE"; 
 476:source\asw/TimingAnalyzer.c ****             break;
 477:source\asw/TimingAnalyzer.c ****         case TA_STATE_STOPPED: 
 478:source\asw/TimingAnalyzer.c ****             strState = "STOPPED"; 
 479:source\asw/TimingAnalyzer.c ****             break;
 480:source\asw/TimingAnalyzer.c ****         case TA_STATE_RUNNING: 
 481:source\asw/TimingAnalyzer.c ****             strState = "RUNNING"; 
 482:source\asw/TimingAnalyzer.c ****             break;
 483:source\asw/TimingAnalyzer.c ****         case TA_STATE_PAUSED:  
 484:source\asw/TimingAnalyzer.c ****             strState = "PAUSED"; 
 485:source\asw/TimingAnalyzer.c ****             break;
 486:source\asw/TimingAnalyzer.c ****         default:
ARM GAS  C:\Users\agila\AppData\Local\Temp\ccG0E307.s 			page 10


 487:source\asw/TimingAnalyzer.c ****             strState = "UNKNOWN"; 
 488:source\asw/TimingAnalyzer.c ****             break;
 489:source\asw/TimingAnalyzer.c ****     }    
 490:source\asw/TimingAnalyzer.c ****     
 491:source\asw/TimingAnalyzer.c ****     // Assemble full status string
 492:source\asw/TimingAnalyzer.c ****     if(me->mode == TA_MODE_DWT || me->mode == TA_MODE_DWT_PIN)
 493:source\asw/TimingAnalyzer.c ****     {
 494:source\asw/TimingAnalyzer.c ****         uint32_t int_ms, frac_ms, rem_cycles;
 495:source\asw/TimingAnalyzer.c ****         int_ms = me->elapsed_time / BCLK__BUS_CLK__KHZ;
 496:source\asw/TimingAnalyzer.c ****         rem_cycles = me->elapsed_time % BCLK__BUS_CLK__KHZ;
 497:source\asw/TimingAnalyzer.c ****         frac_ms = (rem_cycles * TA_SCALE_FACTOR) / BCLK__BUS_CLK__KHZ;
 498:source\asw/TimingAnalyzer.c ****         
 499:source\asw/TimingAnalyzer.c ****         snprintf(buffer, sizeof(buffer), "Name: %s | State: %s | Elapsed time: %u.%06ums | Cycles: 
 500:source\asw/TimingAnalyzer.c ****              me->name, strState, int_ms, frac_ms, me->elapsed_time);
 501:source\asw/TimingAnalyzer.c ****     } else if(me->mode == TA_MODE_PIN) {
 502:source\asw/TimingAnalyzer.c ****         snprintf(buffer, sizeof(buffer), "Name: %s | State: %s\r\n", // N10
 503:source\asw/TimingAnalyzer.c ****             me->name, strState);
 504:source\asw/TimingAnalyzer.c ****     } else {
 505:source\asw/TimingAnalyzer.c ****         snprintf(buffer, sizeof(buffer), "Name: %s | State: %s | Elapsed time: %lums\r\n",
 506:source\asw/TimingAnalyzer.c ****             me->name, strState, me->elapsed_time);
 507:source\asw/TimingAnalyzer.c ****     }
 508:source\asw/TimingAnalyzer.c **** 
 509:source\asw/TimingAnalyzer.c ****     // Send string to UART
 510:source\asw/TimingAnalyzer.c ****     UART_LOG_PutString(buffer);
 511:source\asw/TimingAnalyzer.c ****     
 512:source\asw/TimingAnalyzer.c ****     return res;
 513:source\asw/TimingAnalyzer.c **** }
 514:source\asw/TimingAnalyzer.c **** 
 515:source\asw/TimingAnalyzer.c **** /**
 516:source\asw/TimingAnalyzer.c ****  * Func to print all the available Analysers
 517:source\asw/TimingAnalyzer.c ****  * \param None
 518:source\asw/TimingAnalyzer.c ****  * \return RC_SUCCESS when success and RC_ERROR_BUFFER_EMTPY when analyzer array is empty
 519:source\asw/TimingAnalyzer.c **** */
 520:source\asw/TimingAnalyzer.c **** RC_t TA_printAll(void)
 521:source\asw/TimingAnalyzer.c **** {
 522:source\asw/TimingAnalyzer.c ****     RC_t res = RC_SUCCESS;
 523:source\asw/TimingAnalyzer.c ****     
 524:source\asw/TimingAnalyzer.c ****     boolean_t anyActive = FALSE;
 525:source\asw/TimingAnalyzer.c ****     
 526:source\asw/TimingAnalyzer.c ****     for (uint8_t i = 0; i < ta_g_analyzer_count; i++)
 527:source\asw/TimingAnalyzer.c ****     {
 528:source\asw/TimingAnalyzer.c ****         TA_t *me = ta_g_analyzers[i];
 529:source\asw/TimingAnalyzer.c ****         if ((me != NULL_PTR) && me->state)
 530:source\asw/TimingAnalyzer.c ****         {
 531:source\asw/TimingAnalyzer.c ****             anyActive = TRUE;
 532:source\asw/TimingAnalyzer.c ****             TA_printStatus(me);
 533:source\asw/TimingAnalyzer.c ****         } else {
 534:source\asw/TimingAnalyzer.c ****             return RC_ERROR_NULL;
 535:source\asw/TimingAnalyzer.c ****         }
 536:source\asw/TimingAnalyzer.c ****     }
 537:source\asw/TimingAnalyzer.c ****     
 538:source\asw/TimingAnalyzer.c ****     // MISRA Rule 13.7 : Boolean expressions should be explicit. (Use to avoid ambiguity.)
 539:source\asw/TimingAnalyzer.c ****     if (anyActive == FALSE)
 540:source\asw/TimingAnalyzer.c ****     {
 541:source\asw/TimingAnalyzer.c ****         // Array is empty
 542:source\asw/TimingAnalyzer.c ****         UART_LOG_PutString("\r\nInfo: No analyzer instance available to print.\r\n");
 543:source\asw/TimingAnalyzer.c ****         
ARM GAS  C:\Users\agila\AppData\Local\Temp\ccG0E307.s 			page 11


 544:source\asw/TimingAnalyzer.c ****         res = RC_ERROR_BUFFER_EMTPY;
 545:source\asw/TimingAnalyzer.c ****     }  
 546:source\asw/TimingAnalyzer.c ****     return res;
 547:source\asw/TimingAnalyzer.c **** }
 548:source\asw/TimingAnalyzer.c **** 
 549:source\asw/TimingAnalyzer.c **** /**
 550:source\asw/TimingAnalyzer.c ****  * Func Systick Handler - used to increment the milliseconds counter each millisecond
 551:source\asw/TimingAnalyzer.c ****  * \param None
 552:source\asw/TimingAnalyzer.c ****  * \return None
 553:source\asw/TimingAnalyzer.c **** */
 554:source\asw/TimingAnalyzer.c **** void SysTick_Handler(void)
 555:source\asw/TimingAnalyzer.c **** {
  28              		.loc 1 555 0
  29              		.cfi_startproc
  30              		@ args = 0, pretend = 0, frame = 0
  31              		@ frame_needed = 0, uses_anonymous_args = 0
  32              		@ link register save eliminated.
 556:source\asw/TimingAnalyzer.c ****     ta_g_system_ms++;
  33              		.loc 1 556 0
  34 0000 024A     		ldr	r2, .L2
  35 0002 1368     		ldr	r3, [r2]
  36 0004 0133     		adds	r3, r3, #1
  37 0006 1360     		str	r3, [r2]
  38 0008 7047     		bx	lr
  39              	.L3:
  40 000a 00BF     		.align	2
  41              	.L2:
  42 000c 00000000 		.word	.LANCHOR0
  43              		.cfi_endproc
  44              	.LFE75:
  45              		.size	SysTick_Handler, .-SysTick_Handler
  46              		.section	.text.TA_init,"ax",%progbits
  47              		.align	2
  48              		.global	TA_init
  49              		.thumb
  50              		.thumb_func
  51              		.type	TA_init, %function
  52              	TA_init:
  53              	.LFB64:
  75:source\asw/TimingAnalyzer.c ****     RC_t res = RC_SUCCESS;
  54              		.loc 1 75 0
  55              		.cfi_startproc
  56              		@ args = 0, pretend = 0, frame = 0
  57              		@ frame_needed = 0, uses_anonymous_args = 0
  58 0000 10B5     		push	{r4, lr}
  59              		.cfi_def_cfa_offset 8
  60              		.cfi_offset 4, -8
  61              		.cfi_offset 14, -4
  62              	.LVL0:
  79:source\asw/TimingAnalyzer.c **** 	CySysTickSetCallback(0, SysTick_Handler);           // Set ISR for Systick
  63              		.loc 1 79 0
  64 0002 FFF7FEFF 		bl	CySysTickInit
  65              	.LVL1:
  80:source\asw/TimingAnalyzer.c **** 	CySysTickSetReload(BCLK__BUS_CLK__HZ / 1000 - 1);   // Set 1ms cycle Time
  66              		.loc 1 80 0
  67 0006 0E49     		ldr	r1, .L6
  68 0008 0020     		movs	r0, #0
ARM GAS  C:\Users\agila\AppData\Local\Temp\ccG0E307.s 			page 12


  69 000a FFF7FEFF 		bl	CySysTickSetCallback
  70              	.LVL2:
  81:source\asw/TimingAnalyzer.c **** 	CySysTickEnable();									// Enable the Callback of the systick
  71              		.loc 1 81 0
  72 000e 45F6BF50 		movw	r0, #23999
  73 0012 FFF7FEFF 		bl	CySysTickSetReload
  74              	.LVL3:
  82:source\asw/TimingAnalyzer.c **** 
  75              		.loc 1 82 0
  76 0016 FFF7FEFF 		bl	CySysTickEnable
  77              	.LVL4:
  84:source\asw/TimingAnalyzer.c ****     
  78              		.loc 1 84 0
  79 001a 0024     		movs	r4, #0
  80 001c 094B     		ldr	r3, .L6+4
  81 001e 1C60     		str	r4, [r3]
  87:source\asw/TimingAnalyzer.c ****     DWT->CYCCNT          = TA_DWT_RESET_VALUE;             // Resets the cycle counter          // 
  82              		.loc 1 87 0
  83 0020 094A     		ldr	r2, .L6+8
  84 0022 D368     		ldr	r3, [r2, #12]
  85 0024 43F08073 		orr	r3, r3, #16777216
  86 0028 D360     		str	r3, [r2, #12]
  88:source\asw/TimingAnalyzer.c ****     DWT->CTRL           |= DWT_CTRL_CYCCNTENA_Msk;         // Starts the DWT counter running    // 
  87              		.loc 1 88 0
  88 002a 084B     		ldr	r3, .L6+12
  89 002c 5C60     		str	r4, [r3, #4]
  89:source\asw/TimingAnalyzer.c **** 
  90              		.loc 1 89 0
  91 002e 1A68     		ldr	r2, [r3]
  92 0030 42F00102 		orr	r2, r2, #1
  93 0034 1A60     		str	r2, [r3]
  92:source\asw/TimingAnalyzer.c ****     
  94              		.loc 1 92 0
  95 0036 FFF7FEFF 		bl	Pins_Init
  96              	.LVL5:
  95:source\asw/TimingAnalyzer.c **** 
  97              		.loc 1 95 0
  98 003a 2046     		mov	r0, r4
  99 003c 10BD     		pop	{r4, pc}
 100              	.L7:
 101 003e 00BF     		.align	2
 102              	.L6:
 103 0040 00000000 		.word	SysTick_Handler
 104 0044 00000000 		.word	.LANCHOR0
 105 0048 F0ED00E0 		.word	-536810000
 106 004c 001000E0 		.word	-536866816
 107              		.cfi_endproc
 108              	.LFE64:
 109              		.size	TA_init, .-TA_init
 110              		.section	.text.TA_create,"ax",%progbits
 111              		.align	2
 112              		.global	TA_create
 113              		.thumb
 114              		.thumb_func
 115              		.type	TA_create, %function
 116              	TA_create:
 117              	.LFB65:
ARM GAS  C:\Users\agila\AppData\Local\Temp\ccG0E307.s 			page 13


 108:source\asw/TimingAnalyzer.c ****     RC_t res = RC_SUCCESS;
 118              		.loc 1 108 0
 119              		.cfi_startproc
 120              		@ args = 0, pretend = 0, frame = 0
 121              		@ frame_needed = 0, uses_anonymous_args = 0
 122              		@ link register save eliminated.
 123              	.LVL6:
 112:source\asw/TimingAnalyzer.c ****     {
 124              		.loc 1 112 0
 125 0000 20B3     		cbz	r0, .L14
 108:source\asw/TimingAnalyzer.c ****     RC_t res = RC_SUCCESS;
 126              		.loc 1 108 0 discriminator 1
 127 0002 70B4     		push	{r4, r5, r6}
 128              		.cfi_def_cfa_offset 12
 129              		.cfi_offset 4, -12
 130              		.cfi_offset 5, -8
 131              		.cfi_offset 6, -4
 132 0004 0446     		mov	r4, r0
 112:source\asw/TimingAnalyzer.c ****     {
 133              		.loc 1 112 0 discriminator 1
 134 0006 23B3     		cbz	r3, .L15
 117:source\asw/TimingAnalyzer.c ****     {
 135              		.loc 1 117 0
 136 0008 0129     		cmp	r1, #1
 137 000a 03D0     		beq	.L10
 117:source\asw/TimingAnalyzer.c ****     {
 138              		.loc 1 117 0 is_stmt 0 discriminator 2
 139 000c 0329     		cmp	r1, #3
 140 000e 01D0     		beq	.L10
 117:source\asw/TimingAnalyzer.c ****     {
 141              		.loc 1 117 0 discriminator 4
 142 0010 0429     		cmp	r1, #4
 143 0012 00D1     		bne	.L11
 144              	.L10:
 117:source\asw/TimingAnalyzer.c ****     {
 145              		.loc 1 117 0 discriminator 5
 146 0014 02B3     		cbz	r2, .L16
 147              	.L11:
 122:source\asw/TimingAnalyzer.c ****     {
 148              		.loc 1 122 0 is_stmt 1
 149 0016 1878     		ldrb	r0, [r3]	@ zero_extendqisi2
 150              	.LVL7:
 151 0018 08B3     		cbz	r0, .L17
 122:source\asw/TimingAnalyzer.c ****     {
 152              		.loc 1 122 0 is_stmt 0 discriminator 1
 153 001a 0529     		cmp	r1, #5
 154 001c 22D8     		bhi	.L18
 127:source\asw/TimingAnalyzer.c ****     {
 155              		.loc 1 127 0 is_stmt 1
 156 001e 09B1     		cbz	r1, .L12
 127:source\asw/TimingAnalyzer.c ****     {
 157              		.loc 1 127 0 is_stmt 0 discriminator 2
 158 0020 0229     		cmp	r1, #2
 159 0022 00D1     		bne	.L13
 160              	.L12:
 127:source\asw/TimingAnalyzer.c ****     {
 161              		.loc 1 127 0 discriminator 3
ARM GAS  C:\Users\agila\AppData\Local\Temp\ccG0E307.s 			page 14


 162 0024 0AB3     		cbz	r2, .L19
 163              	.L13:
 132:source\asw/TimingAnalyzer.c ****     {
 164              		.loc 1 132 0 is_stmt 1
 165 0026 1448     		ldr	r0, .L22
 166 0028 0579     		ldrb	r5, [r0, #4]	@ zero_extendqisi2
 167 002a 092D     		cmp	r5, #9
 168 002c 20D8     		bhi	.L20
 140:source\asw/TimingAnalyzer.c ****     
 169              		.loc 1 140 0
 170 002e 6E1C     		adds	r6, r5, #1
 171 0030 0671     		strb	r6, [r0, #4]
 172 0032 00EB8500 		add	r0, r0, r5, lsl #2
 173 0036 8460     		str	r4, [r0, #8]
 143:source\asw/TimingAnalyzer.c ****     
 174              		.loc 1 143 0
 175 0038 0020     		movs	r0, #0
 176 003a 6060     		str	r0, [r4, #4]	@ unaligned
 146:source\asw/TimingAnalyzer.c ****         me->state   = TA_STATE_IDLE;
 177              		.loc 1 146 0
 178 003c 2171     		strb	r1, [r4, #4]
 147:source\asw/TimingAnalyzer.c ****         me->name    = name;
 179              		.loc 1 147 0
 180 003e 6071     		strb	r0, [r4, #5]
 148:source\asw/TimingAnalyzer.c ****     
 181              		.loc 1 148 0
 182 0040 2360     		str	r3, [r4]
 151:source\asw/TimingAnalyzer.c ****         me->stop_time       = 0UL;
 183              		.loc 1 151 0
 184 0042 A060     		str	r0, [r4, #8]
 152:source\asw/TimingAnalyzer.c ****         me->elapsed_time    = 0UL;
 185              		.loc 1 152 0
 186 0044 E060     		str	r0, [r4, #12]
 153:source\asw/TimingAnalyzer.c ****         
 187              		.loc 1 153 0
 188 0046 2061     		str	r0, [r4, #16]
 156:source\asw/TimingAnalyzer.c ****     }
 189              		.loc 1 156 0
 190 0048 6261     		str	r2, [r4, #20]
 191 004a 13E0     		b	.L9
 192              	.LVL8:
 193              	.L14:
 194              		.cfi_def_cfa_offset 0
 195              		.cfi_restore 4
 196              		.cfi_restore 5
 197              		.cfi_restore 6
 114:source\asw/TimingAnalyzer.c ****     }
 198              		.loc 1 114 0
 199 004c 6FF00100 		mvn	r0, #1
 200              	.LVL9:
 159:source\asw/TimingAnalyzer.c **** 
 201              		.loc 1 159 0
 202 0050 7047     		bx	lr
 203              	.LVL10:
 204              	.L15:
 205              		.cfi_def_cfa_offset 12
 206              		.cfi_offset 4, -12
ARM GAS  C:\Users\agila\AppData\Local\Temp\ccG0E307.s 			page 15


 207              		.cfi_offset 5, -8
 208              		.cfi_offset 6, -4
 114:source\asw/TimingAnalyzer.c ****     }
 209              		.loc 1 114 0
 210 0052 6FF00100 		mvn	r0, #1
 211              	.LVL11:
 212 0056 0DE0     		b	.L9
 213              	.LVL12:
 214              	.L16:
 119:source\asw/TimingAnalyzer.c ****     }
 215              		.loc 1 119 0
 216 0058 6FF00100 		mvn	r0, #1
 217              	.LVL13:
 218 005c 0AE0     		b	.L9
 219              	.L17:
 124:source\asw/TimingAnalyzer.c ****     }
 220              		.loc 1 124 0
 221 005e 6FF01300 		mvn	r0, #19
 222 0062 07E0     		b	.L9
 223              	.L18:
 224 0064 6FF01300 		mvn	r0, #19
 225 0068 04E0     		b	.L9
 226              	.L19:
 129:source\asw/TimingAnalyzer.c ****     }
 227              		.loc 1 129 0
 228 006a 6FF01300 		mvn	r0, #19
 229 006e 01E0     		b	.L9
 230              	.L20:
 134:source\asw/TimingAnalyzer.c ****     }
 231              		.loc 1 134 0
 232 0070 6FF00700 		mvn	r0, #7
 233              	.L9:
 159:source\asw/TimingAnalyzer.c **** 
 234              		.loc 1 159 0
 235 0074 70BC     		pop	{r4, r5, r6}
 236              		.cfi_restore 6
 237              		.cfi_restore 5
 238              		.cfi_restore 4
 239              		.cfi_def_cfa_offset 0
 240              	.LVL14:
 241 0076 7047     		bx	lr
 242              	.L23:
 243              		.align	2
 244              	.L22:
 245 0078 00000000 		.word	.LANCHOR0
 246              		.cfi_endproc
 247              	.LFE65:
 248              		.size	TA_create, .-TA_create
 249              		.section	.text.TA_start,"ax",%progbits
 250              		.align	2
 251              		.global	TA_start
 252              		.thumb
 253              		.thumb_func
 254              		.type	TA_start, %function
 255              	TA_start:
 256              	.LFB66:
 169:source\asw/TimingAnalyzer.c ****     RC_t res = RC_SUCCESS;
ARM GAS  C:\Users\agila\AppData\Local\Temp\ccG0E307.s 			page 16


 257              		.loc 1 169 0
 258              		.cfi_startproc
 259              		@ args = 0, pretend = 0, frame = 0
 260              		@ frame_needed = 0, uses_anonymous_args = 0
 261              	.LVL15:
 173:source\asw/TimingAnalyzer.c ****     {
 262              		.loc 1 173 0
 263 0000 08B3     		cbz	r0, .L30
 169:source\asw/TimingAnalyzer.c ****     RC_t res = RC_SUCCESS;
 264              		.loc 1 169 0
 265 0002 10B5     		push	{r4, lr}
 266              		.cfi_def_cfa_offset 8
 267              		.cfi_offset 4, -8
 268              		.cfi_offset 14, -4
 269 0004 0446     		mov	r4, r0
 179:source\asw/TimingAnalyzer.c ****     {
 270              		.loc 1 179 0
 271 0006 4379     		ldrb	r3, [r0, #5]	@ zero_extendqisi2
 272 0008 012B     		cmp	r3, #1
 273 000a 1FD0     		beq	.L31
 185:source\asw/TimingAnalyzer.c ****     {
 274              		.loc 1 185 0
 275 000c 0379     		ldrb	r3, [r0, #4]	@ zero_extendqisi2
 276 000e 032B     		cmp	r3, #3
 277 0010 03D0     		beq	.L26
 185:source\asw/TimingAnalyzer.c ****     {
 278              		.loc 1 185 0 is_stmt 0 discriminator 1
 279 0012 012B     		cmp	r3, #1
 280 0014 01D0     		beq	.L26
 185:source\asw/TimingAnalyzer.c ****     {
 281              		.loc 1 185 0 discriminator 2
 282 0016 042B     		cmp	r3, #4
 283 0018 03D1     		bne	.L27
 284              	.L26:
 187:source\asw/TimingAnalyzer.c ****         {
 285              		.loc 1 187 0 is_stmt 1
 286 001a 6369     		ldr	r3, [r4, #20]
 287 001c CBB1     		cbz	r3, .L32
 189:source\asw/TimingAnalyzer.c ****         } else {
 288              		.loc 1 189 0
 289 001e 0120     		movs	r0, #1
 290              	.LVL16:
 291 0020 9847     		blx	r3
 292              	.LVL17:
 293              	.L27:
 196:source\asw/TimingAnalyzer.c ****         // SysTick counts in ms
 294              		.loc 1 196 0
 295 0022 2279     		ldrb	r2, [r4, #4]	@ zero_extendqisi2
 296 0024 931E     		subs	r3, r2, #2
 297 0026 DBB2     		uxtb	r3, r3
 298 0028 012B     		cmp	r3, #1
 299 002a 03D8     		bhi	.L28
 198:source\asw/TimingAnalyzer.c ****     } else if (TA_MODE_DWT  == me->mode || TA_MODE_DWT_PIN  == me->mode) {
 300              		.loc 1 198 0
 301 002c 0A4B     		ldr	r3, .L34
 302 002e 1B68     		ldr	r3, [r3]
 303 0030 A360     		str	r3, [r4, #8]
ARM GAS  C:\Users\agila\AppData\Local\Temp\ccG0E307.s 			page 17


 304 0032 04E0     		b	.L29
 305              	.L28:
 199:source\asw/TimingAnalyzer.c ****         // DWT->CYCCNT = current CPU cycle count
 306              		.loc 1 199 0
 307 0034 012A     		cmp	r2, #1
 308 0036 02D8     		bhi	.L29
 201:source\asw/TimingAnalyzer.c ****     } else {
 309              		.loc 1 201 0
 310 0038 084B     		ldr	r3, .L34+4
 311 003a 5B68     		ldr	r3, [r3, #4]
 312 003c A360     		str	r3, [r4, #8]
 313              	.L29:
 207:source\asw/TimingAnalyzer.c ****     
 314              		.loc 1 207 0
 315 003e 0123     		movs	r3, #1
 316 0040 6371     		strb	r3, [r4, #5]
 209:source\asw/TimingAnalyzer.c **** }
 317              		.loc 1 209 0
 318 0042 0020     		movs	r0, #0
 319 0044 10BD     		pop	{r4, pc}
 320              	.LVL18:
 321              	.L30:
 322              		.cfi_def_cfa_offset 0
 323              		.cfi_restore 4
 324              		.cfi_restore 14
 175:source\asw/TimingAnalyzer.c ****     }
 325              		.loc 1 175 0
 326 0046 6FF00100 		mvn	r0, #1
 327              	.LVL19:
 210:source\asw/TimingAnalyzer.c **** 
 328              		.loc 1 210 0
 329 004a 7047     		bx	lr
 330              	.LVL20:
 331              	.L31:
 332              		.cfi_def_cfa_offset 8
 333              		.cfi_offset 4, -8
 334              		.cfi_offset 14, -4
 181:source\asw/TimingAnalyzer.c ****     }
 335              		.loc 1 181 0
 336 004c 6FF00900 		mvn	r0, #9
 337              	.LVL21:
 338 0050 10BD     		pop	{r4, pc}
 339              	.LVL22:
 340              	.L32:
 191:source\asw/TimingAnalyzer.c ****         }
 341              		.loc 1 191 0
 342 0052 6FF00100 		mvn	r0, #1
 343              	.LVL23:
 210:source\asw/TimingAnalyzer.c **** 
 344              		.loc 1 210 0
 345 0056 10BD     		pop	{r4, pc}
 346              	.LVL24:
 347              	.L35:
 348              		.align	2
 349              	.L34:
 350 0058 00000000 		.word	.LANCHOR0
 351 005c 001000E0 		.word	-536866816
ARM GAS  C:\Users\agila\AppData\Local\Temp\ccG0E307.s 			page 18


 352              		.cfi_endproc
 353              	.LFE66:
 354              		.size	TA_start, .-TA_start
 355              		.section	.text.TA_resume,"ax",%progbits
 356              		.align	2
 357              		.global	TA_resume
 358              		.thumb
 359              		.thumb_func
 360              		.type	TA_resume, %function
 361              	TA_resume:
 362              	.LFB68:
 273:source\asw/TimingAnalyzer.c ****     RC_t res = RC_SUCCESS;
 363              		.loc 1 273 0
 364              		.cfi_startproc
 365              		@ args = 0, pretend = 0, frame = 0
 366              		@ frame_needed = 0, uses_anonymous_args = 0
 367              	.LVL25:
 277:source\asw/TimingAnalyzer.c ****     {
 368              		.loc 1 277 0
 369 0000 08B3     		cbz	r0, .L42
 273:source\asw/TimingAnalyzer.c ****     RC_t res = RC_SUCCESS;
 370              		.loc 1 273 0
 371 0002 10B5     		push	{r4, lr}
 372              		.cfi_def_cfa_offset 8
 373              		.cfi_offset 4, -8
 374              		.cfi_offset 14, -4
 375 0004 0446     		mov	r4, r0
 283:source\asw/TimingAnalyzer.c ****     {
 376              		.loc 1 283 0
 377 0006 4379     		ldrb	r3, [r0, #5]	@ zero_extendqisi2
 378 0008 022B     		cmp	r3, #2
 379 000a 1FD1     		bne	.L43
 289:source\asw/TimingAnalyzer.c ****     {
 380              		.loc 1 289 0
 381 000c 0379     		ldrb	r3, [r0, #4]	@ zero_extendqisi2
 382 000e 032B     		cmp	r3, #3
 383 0010 03D0     		beq	.L38
 289:source\asw/TimingAnalyzer.c ****     {
 384              		.loc 1 289 0 is_stmt 0 discriminator 1
 385 0012 012B     		cmp	r3, #1
 386 0014 01D0     		beq	.L38
 289:source\asw/TimingAnalyzer.c ****     {
 387              		.loc 1 289 0 discriminator 2
 388 0016 042B     		cmp	r3, #4
 389 0018 03D1     		bne	.L39
 390              	.L38:
 291:source\asw/TimingAnalyzer.c ****         {
 391              		.loc 1 291 0 is_stmt 1
 392 001a 6369     		ldr	r3, [r4, #20]
 393 001c CBB1     		cbz	r3, .L44
 293:source\asw/TimingAnalyzer.c ****         } else {
 394              		.loc 1 293 0
 395 001e 0120     		movs	r0, #1
 396              	.LVL26:
 397 0020 9847     		blx	r3
 398              	.LVL27:
 399              	.L39:
ARM GAS  C:\Users\agila\AppData\Local\Temp\ccG0E307.s 			page 19


 300:source\asw/TimingAnalyzer.c ****        // SysTick counts in ms
 400              		.loc 1 300 0
 401 0022 2279     		ldrb	r2, [r4, #4]	@ zero_extendqisi2
 402 0024 931E     		subs	r3, r2, #2
 403 0026 DBB2     		uxtb	r3, r3
 404 0028 012B     		cmp	r3, #1
 405 002a 03D8     		bhi	.L40
 302:source\asw/TimingAnalyzer.c ****     } else if (TA_MODE_DWT == me->mode || TA_MODE_DWT_PIN == me->mode) {
 406              		.loc 1 302 0
 407 002c 0A4B     		ldr	r3, .L46
 408 002e 1B68     		ldr	r3, [r3]
 409 0030 A360     		str	r3, [r4, #8]
 410 0032 04E0     		b	.L41
 411              	.L40:
 303:source\asw/TimingAnalyzer.c ****         // DWT cycle counter
 412              		.loc 1 303 0
 413 0034 012A     		cmp	r2, #1
 414 0036 02D8     		bhi	.L41
 305:source\asw/TimingAnalyzer.c ****     } else {      
 415              		.loc 1 305 0
 416 0038 084B     		ldr	r3, .L46+4
 417 003a 5B68     		ldr	r3, [r3, #4]
 418 003c A360     		str	r3, [r4, #8]
 419              	.L41:
 311:source\asw/TimingAnalyzer.c ****     
 420              		.loc 1 311 0
 421 003e 0123     		movs	r3, #1
 422 0040 6371     		strb	r3, [r4, #5]
 313:source\asw/TimingAnalyzer.c **** }
 423              		.loc 1 313 0
 424 0042 0020     		movs	r0, #0
 425 0044 10BD     		pop	{r4, pc}
 426              	.LVL28:
 427              	.L42:
 428              		.cfi_def_cfa_offset 0
 429              		.cfi_restore 4
 430              		.cfi_restore 14
 279:source\asw/TimingAnalyzer.c ****     }
 431              		.loc 1 279 0
 432 0046 6FF00100 		mvn	r0, #1
 433              	.LVL29:
 314:source\asw/TimingAnalyzer.c **** 
 434              		.loc 1 314 0
 435 004a 7047     		bx	lr
 436              	.LVL30:
 437              	.L43:
 438              		.cfi_def_cfa_offset 8
 439              		.cfi_offset 4, -8
 440              		.cfi_offset 14, -4
 285:source\asw/TimingAnalyzer.c ****     }
 441              		.loc 1 285 0
 442 004c 6FF01600 		mvn	r0, #22
 443              	.LVL31:
 444 0050 10BD     		pop	{r4, pc}
 445              	.LVL32:
 446              	.L44:
 295:source\asw/TimingAnalyzer.c ****         }
ARM GAS  C:\Users\agila\AppData\Local\Temp\ccG0E307.s 			page 20


 447              		.loc 1 295 0
 448 0052 6FF00100 		mvn	r0, #1
 449              	.LVL33:
 314:source\asw/TimingAnalyzer.c **** 
 450              		.loc 1 314 0
 451 0056 10BD     		pop	{r4, pc}
 452              	.LVL34:
 453              	.L47:
 454              		.align	2
 455              	.L46:
 456 0058 00000000 		.word	.LANCHOR0
 457 005c 001000E0 		.word	-536866816
 458              		.cfi_endproc
 459              	.LFE68:
 460              		.size	TA_resume, .-TA_resume
 461              		.section	.text.TA_delete,"ax",%progbits
 462              		.align	2
 463              		.global	TA_delete
 464              		.thumb
 465              		.thumb_func
 466              		.type	TA_delete, %function
 467              	TA_delete:
 468              	.LFB70:
 376:source\asw/TimingAnalyzer.c ****     RC_t res = RC_SUCCESS;
 469              		.loc 1 376 0
 470              		.cfi_startproc
 471              		@ args = 0, pretend = 0, frame = 0
 472              		@ frame_needed = 0, uses_anonymous_args = 0
 473              		@ link register save eliminated.
 474              	.LVL35:
 382:source\asw/TimingAnalyzer.c ****     {
 475              		.loc 1 382 0
 476 0000 78B3     		cbz	r0, .L55
 376:source\asw/TimingAnalyzer.c ****     RC_t res = RC_SUCCESS;
 477              		.loc 1 376 0
 478 0002 30B4     		push	{r4, r5}
 479              		.cfi_def_cfa_offset 8
 480              		.cfi_offset 4, -8
 481              		.cfi_offset 5, -4
 482 0004 0546     		mov	r5, r0
 483 0006 0023     		movs	r3, #0
 484 0008 07E0     		b	.L50
 485              	.LVL36:
 486              	.L52:
 390:source\asw/TimingAnalyzer.c ****         {
 487              		.loc 1 390 0
 488 000a 194A     		ldr	r2, .L59
 489 000c 02EB8302 		add	r2, r2, r3, lsl #2
 490 0010 9268     		ldr	r2, [r2, #8]
 491 0012 9542     		cmp	r5, r2
 492 0014 07D0     		beq	.L56
 388:source\asw/TimingAnalyzer.c ****     {
 493              		.loc 1 388 0 discriminator 2
 494 0016 0133     		adds	r3, r3, #1
 495              	.LVL37:
 496 0018 DBB2     		uxtb	r3, r3
 497              	.LVL38:
ARM GAS  C:\Users\agila\AppData\Local\Temp\ccG0E307.s 			page 21


 498              	.L50:
 388:source\asw/TimingAnalyzer.c ****     {
 499              		.loc 1 388 0 is_stmt 0 discriminator 1
 500 001a 154A     		ldr	r2, .L59
 501 001c 1479     		ldrb	r4, [r2, #4]	@ zero_extendqisi2
 502 001e A342     		cmp	r3, r4
 503 0020 F3D3     		bcc	.L52
 380:source\asw/TimingAnalyzer.c **** 
 504              		.loc 1 380 0 is_stmt 1
 505 0022 0022     		movs	r2, #0
 506 0024 00E0     		b	.L51
 507              	.L56:
 392:source\asw/TimingAnalyzer.c ****             break;
 508              		.loc 1 392 0
 509 0026 0122     		movs	r2, #1
 510              	.L51:
 511              	.LVL39:
 397:source\asw/TimingAnalyzer.c ****     {
 512              		.loc 1 397 0
 513 0028 52B9     		cbnz	r2, .L53
 514 002a 1DE0     		b	.L57
 515              	.LVL40:
 516              	.L54:
 517              	.LBB2:
 405:source\asw/TimingAnalyzer.c ****     }
 518              		.loc 1 405 0 discriminator 3
 519 002c 591C     		adds	r1, r3, #1
 520 002e 104A     		ldr	r2, .L59
 521 0030 02EB8101 		add	r1, r2, r1, lsl #2
 522 0034 8968     		ldr	r1, [r1, #8]
 523 0036 02EB8302 		add	r2, r2, r3, lsl #2
 524 003a 9160     		str	r1, [r2, #8]
 403:source\asw/TimingAnalyzer.c ****     {
 525              		.loc 1 403 0 discriminator 3
 526 003c 0133     		adds	r3, r3, #1
 527              	.LVL41:
 528 003e DBB2     		uxtb	r3, r3
 529              	.LVL42:
 530              	.L53:
 403:source\asw/TimingAnalyzer.c ****     {
 531              		.loc 1 403 0 is_stmt 0 discriminator 1
 532 0040 621E     		subs	r2, r4, #1
 533 0042 9342     		cmp	r3, r2
 534 0044 F2D3     		bcc	.L54
 535              	.LBE2:
 408:source\asw/TimingAnalyzer.c ****     ta_g_analyzer_count--;
 536              		.loc 1 408 0 is_stmt 1
 537 0046 0A4B     		ldr	r3, .L59
 538              	.LVL43:
 539 0048 03EB8202 		add	r2, r3, r2, lsl #2
 540 004c 0020     		movs	r0, #0
 541              	.LVL44:
 542 004e 9060     		str	r0, [r2, #8]
 409:source\asw/TimingAnalyzer.c **** 
 543              		.loc 1 409 0
 544 0050 013C     		subs	r4, r4, #1
 545 0052 1C71     		strb	r4, [r3, #4]
ARM GAS  C:\Users\agila\AppData\Local\Temp\ccG0E307.s 			page 22


 412:source\asw/TimingAnalyzer.c **** 
 546              		.loc 1 412 0
 547 0054 2860     		str	r0, [r5]	@ unaligned
 548 0056 6860     		str	r0, [r5, #4]	@ unaligned
 549 0058 A860     		str	r0, [r5, #8]	@ unaligned
 550 005a E860     		str	r0, [r5, #12]	@ unaligned
 551 005c 2861     		str	r0, [r5, #16]	@ unaligned
 552 005e 6861     		str	r0, [r5, #20]	@ unaligned
 414:source\asw/TimingAnalyzer.c **** }
 553              		.loc 1 414 0
 554 0060 04E0     		b	.L49
 555              	.LVL45:
 556              	.L55:
 557              		.cfi_def_cfa_offset 0
 558              		.cfi_restore 4
 559              		.cfi_restore 5
 384:source\asw/TimingAnalyzer.c ****     }
 560              		.loc 1 384 0
 561 0062 6FF00100 		mvn	r0, #1
 562              	.LVL46:
 415:source\asw/TimingAnalyzer.c **** 
 563              		.loc 1 415 0
 564 0066 7047     		bx	lr
 565              	.LVL47:
 566              	.L57:
 567              		.cfi_def_cfa_offset 8
 568              		.cfi_offset 4, -8
 569              		.cfi_offset 5, -4
 399:source\asw/TimingAnalyzer.c ****     }
 570              		.loc 1 399 0
 571 0068 6FF01300 		mvn	r0, #19
 572              	.LVL48:
 573              	.L49:
 415:source\asw/TimingAnalyzer.c **** 
 574              		.loc 1 415 0
 575 006c 30BC     		pop	{r4, r5}
 576              		.cfi_restore 5
 577              		.cfi_restore 4
 578              		.cfi_def_cfa_offset 0
 579              	.LVL49:
 580 006e 7047     		bx	lr
 581              	.L60:
 582              		.align	2
 583              	.L59:
 584 0070 00000000 		.word	.LANCHOR0
 585              		.cfi_endproc
 586              	.LFE70:
 587              		.size	TA_delete, .-TA_delete
 588              		.section	.text.TA_calculateElapsedTime,"ax",%progbits
 589              		.align	2
 590              		.global	TA_calculateElapsedTime
 591              		.thumb
 592              		.thumb_func
 593              		.type	TA_calculateElapsedTime, %function
 594              	TA_calculateElapsedTime:
 595              	.LFB71:
 423:source\asw/TimingAnalyzer.c ****     RC_t res = RC_SUCCESS;
ARM GAS  C:\Users\agila\AppData\Local\Temp\ccG0E307.s 			page 23


 596              		.loc 1 423 0
 597              		.cfi_startproc
 598              		@ args = 0, pretend = 0, frame = 0
 599              		@ frame_needed = 0, uses_anonymous_args = 0
 600              		@ link register save eliminated.
 601              	.LVL50:
 427:source\asw/TimingAnalyzer.c ****     {
 602              		.loc 1 427 0
 603 0000 C368     		ldr	r3, [r0, #12]
 604 0002 8268     		ldr	r2, [r0, #8]
 605 0004 9342     		cmp	r3, r2
 606 0006 04D3     		bcc	.L62
 429:source\asw/TimingAnalyzer.c ****     } else {
 607              		.loc 1 429 0
 608 0008 0169     		ldr	r1, [r0, #16]
 609 000a 9B1A     		subs	r3, r3, r2
 610 000c 0B44     		add	r3, r3, r1
 611 000e 0361     		str	r3, [r0, #16]
 612 0010 03E0     		b	.L63
 613              	.L62:
 432:source\asw/TimingAnalyzer.c ****     }
 614              		.loc 1 432 0
 615 0012 0169     		ldr	r1, [r0, #16]
 616 0014 9B1A     		subs	r3, r3, r2
 617 0016 0B44     		add	r3, r3, r1
 618 0018 0361     		str	r3, [r0, #16]
 619              	.L63:
 435:source\asw/TimingAnalyzer.c **** 
 620              		.loc 1 435 0
 621 001a 0020     		movs	r0, #0
 622              	.LVL51:
 623 001c 7047     		bx	lr
 624              		.cfi_endproc
 625              	.LFE71:
 626              		.size	TA_calculateElapsedTime, .-TA_calculateElapsedTime
 627 001e 00BF     		.section	.text.TA_pause,"ax",%progbits
 628              		.align	2
 629              		.global	TA_pause
 630              		.thumb
 631              		.thumb_func
 632              		.type	TA_pause, %function
 633              	TA_pause:
 634              	.LFB67:
 219:source\asw/TimingAnalyzer.c ****     RC_t res = RC_SUCCESS;
 635              		.loc 1 219 0
 636              		.cfi_startproc
 637              		@ args = 0, pretend = 0, frame = 0
 638              		@ frame_needed = 0, uses_anonymous_args = 0
 639              	.LVL52:
 223:source\asw/TimingAnalyzer.c ****     {
 640              		.loc 1 223 0
 641 0000 30B3     		cbz	r0, .L70
 219:source\asw/TimingAnalyzer.c ****     RC_t res = RC_SUCCESS;
 642              		.loc 1 219 0
 643 0002 38B5     		push	{r3, r4, r5, lr}
 644              		.cfi_def_cfa_offset 16
 645              		.cfi_offset 3, -16
ARM GAS  C:\Users\agila\AppData\Local\Temp\ccG0E307.s 			page 24


 646              		.cfi_offset 4, -12
 647              		.cfi_offset 5, -8
 648              		.cfi_offset 14, -4
 649 0004 0346     		mov	r3, r0
 229:source\asw/TimingAnalyzer.c ****     {
 650              		.loc 1 229 0
 651 0006 4279     		ldrb	r2, [r0, #5]	@ zero_extendqisi2
 652 0008 012A     		cmp	r2, #1
 653 000a 24D1     		bne	.L71
 235:source\asw/TimingAnalyzer.c ****         // SysTick counts in ms
 654              		.loc 1 235 0
 655 000c 0179     		ldrb	r1, [r0, #4]	@ zero_extendqisi2
 656 000e 8A1E     		subs	r2, r1, #2
 657 0010 D2B2     		uxtb	r2, r2
 658 0012 012A     		cmp	r2, #1
 659 0014 03D8     		bhi	.L66
 237:source\asw/TimingAnalyzer.c ****         
 660              		.loc 1 237 0
 661 0016 134A     		ldr	r2, .L74
 662 0018 1268     		ldr	r2, [r2]
 663 001a C260     		str	r2, [r0, #12]
 664 001c 04E0     		b	.L67
 665              	.L66:
 239:source\asw/TimingAnalyzer.c ****         // DWT cycle counter
 666              		.loc 1 239 0
 667 001e 0129     		cmp	r1, #1
 668 0020 02D8     		bhi	.L67
 241:source\asw/TimingAnalyzer.c ****         
 669              		.loc 1 241 0
 670 0022 114A     		ldr	r2, .L74+4
 671 0024 5268     		ldr	r2, [r2, #4]
 672 0026 C260     		str	r2, [r0, #12]
 673              	.L67:
 674 0028 1C46     		mov	r4, r3
 247:source\asw/TimingAnalyzer.c ****     
 675              		.loc 1 247 0
 676 002a 1846     		mov	r0, r3
 677              	.LVL53:
 678 002c FFF7FEFF 		bl	TA_calculateElapsedTime
 679              	.LVL54:
 680 0030 0546     		mov	r5, r0
 681              	.LVL55:
 250:source\asw/TimingAnalyzer.c ****     {
 682              		.loc 1 250 0
 683 0032 2379     		ldrb	r3, [r4, #4]	@ zero_extendqisi2
 684 0034 032B     		cmp	r3, #3
 685 0036 03D0     		beq	.L68
 250:source\asw/TimingAnalyzer.c ****     {
 686              		.loc 1 250 0 is_stmt 0 discriminator 1
 687 0038 012B     		cmp	r3, #1
 688 003a 01D0     		beq	.L68
 250:source\asw/TimingAnalyzer.c ****     {
 689              		.loc 1 250 0 discriminator 2
 690 003c 042B     		cmp	r3, #4
 691 003e 03D1     		bne	.L69
 692              	.L68:
 252:source\asw/TimingAnalyzer.c ****         {
ARM GAS  C:\Users\agila\AppData\Local\Temp\ccG0E307.s 			page 25


 693              		.loc 1 252 0 is_stmt 1
 694 0040 6369     		ldr	r3, [r4, #20]
 695 0042 5BB1     		cbz	r3, .L72
 254:source\asw/TimingAnalyzer.c ****         } else {
 696              		.loc 1 254 0
 697 0044 0020     		movs	r0, #0
 698 0046 9847     		blx	r3
 699              	.LVL56:
 700              	.L69:
 261:source\asw/TimingAnalyzer.c ****     
 701              		.loc 1 261 0
 702 0048 0223     		movs	r3, #2
 703 004a 6371     		strb	r3, [r4, #5]
 263:source\asw/TimingAnalyzer.c **** }
 704              		.loc 1 263 0
 705 004c 2846     		mov	r0, r5
 706 004e 38BD     		pop	{r3, r4, r5, pc}
 707              	.LVL57:
 708              	.L70:
 709              		.cfi_def_cfa_offset 0
 710              		.cfi_restore 3
 711              		.cfi_restore 4
 712              		.cfi_restore 5
 713              		.cfi_restore 14
 225:source\asw/TimingAnalyzer.c ****     }
 714              		.loc 1 225 0
 715 0050 6FF00100 		mvn	r0, #1
 716              	.LVL58:
 264:source\asw/TimingAnalyzer.c **** 
 717              		.loc 1 264 0
 718 0054 7047     		bx	lr
 719              	.LVL59:
 720              	.L71:
 721              		.cfi_def_cfa_offset 16
 722              		.cfi_offset 3, -16
 723              		.cfi_offset 4, -12
 724              		.cfi_offset 5, -8
 725              		.cfi_offset 14, -4
 231:source\asw/TimingAnalyzer.c ****     }
 726              		.loc 1 231 0
 727 0056 6FF01600 		mvn	r0, #22
 728              	.LVL60:
 729 005a 38BD     		pop	{r3, r4, r5, pc}
 730              	.LVL61:
 731              	.L72:
 256:source\asw/TimingAnalyzer.c ****         }
 732              		.loc 1 256 0
 733 005c 6FF00100 		mvn	r0, #1
 264:source\asw/TimingAnalyzer.c **** 
 734              		.loc 1 264 0
 735 0060 38BD     		pop	{r3, r4, r5, pc}
 736              	.LVL62:
 737              	.L75:
 738 0062 00BF     		.align	2
 739              	.L74:
 740 0064 00000000 		.word	.LANCHOR0
 741 0068 001000E0 		.word	-536866816
ARM GAS  C:\Users\agila\AppData\Local\Temp\ccG0E307.s 			page 26


 742              		.cfi_endproc
 743              	.LFE67:
 744              		.size	TA_pause, .-TA_pause
 745              		.section	.text.TA_stop,"ax",%progbits
 746              		.align	2
 747              		.global	TA_stop
 748              		.thumb
 749              		.thumb_func
 750              		.type	TA_stop, %function
 751              	TA_stop:
 752              	.LFB69:
 323:source\asw/TimingAnalyzer.c ****     RC_t res = RC_SUCCESS;
 753              		.loc 1 323 0
 754              		.cfi_startproc
 755              		@ args = 0, pretend = 0, frame = 0
 756              		@ frame_needed = 0, uses_anonymous_args = 0
 757              	.LVL63:
 327:source\asw/TimingAnalyzer.c ****     {
 758              		.loc 1 327 0
 759 0000 40B3     		cbz	r0, .L82
 323:source\asw/TimingAnalyzer.c ****     RC_t res = RC_SUCCESS;
 760              		.loc 1 323 0
 761 0002 38B5     		push	{r3, r4, r5, lr}
 762              		.cfi_def_cfa_offset 16
 763              		.cfi_offset 3, -16
 764              		.cfi_offset 4, -12
 765              		.cfi_offset 5, -8
 766              		.cfi_offset 14, -4
 767 0004 0346     		mov	r3, r0
 333:source\asw/TimingAnalyzer.c ****     {
 768              		.loc 1 333 0
 769 0006 4279     		ldrb	r2, [r0, #5]	@ zero_extendqisi2
 770 0008 013A     		subs	r2, r2, #1
 771 000a D2B2     		uxtb	r2, r2
 772 000c 012A     		cmp	r2, #1
 773 000e 24D8     		bhi	.L83
 339:source\asw/TimingAnalyzer.c ****         // SysTick counts in ms
 774              		.loc 1 339 0
 775 0010 0179     		ldrb	r1, [r0, #4]	@ zero_extendqisi2
 776 0012 8A1E     		subs	r2, r1, #2
 777 0014 D2B2     		uxtb	r2, r2
 778 0016 012A     		cmp	r2, #1
 779 0018 03D8     		bhi	.L78
 341:source\asw/TimingAnalyzer.c ****     } else if (TA_MODE_DWT == me->mode || TA_MODE_DWT_PIN == me->mode) {
 780              		.loc 1 341 0
 781 001a 134A     		ldr	r2, .L86
 782 001c 1268     		ldr	r2, [r2]
 783 001e C260     		str	r2, [r0, #12]
 784 0020 04E0     		b	.L79
 785              	.L78:
 342:source\asw/TimingAnalyzer.c ****         // DWT cycle counter
 786              		.loc 1 342 0
 787 0022 0129     		cmp	r1, #1
 788 0024 02D8     		bhi	.L79
 344:source\asw/TimingAnalyzer.c ****     } else {
 789              		.loc 1 344 0
 790 0026 114A     		ldr	r2, .L86+4
ARM GAS  C:\Users\agila\AppData\Local\Temp\ccG0E307.s 			page 27


 791 0028 5268     		ldr	r2, [r2, #4]
 792 002a C260     		str	r2, [r0, #12]
 793              	.L79:
 794 002c 1C46     		mov	r4, r3
 349:source\asw/TimingAnalyzer.c ****     
 795              		.loc 1 349 0
 796 002e 1846     		mov	r0, r3
 797              	.LVL64:
 798 0030 FFF7FEFF 		bl	TA_calculateElapsedTime
 799              	.LVL65:
 800 0034 0546     		mov	r5, r0
 801              	.LVL66:
 352:source\asw/TimingAnalyzer.c ****     {
 802              		.loc 1 352 0
 803 0036 2379     		ldrb	r3, [r4, #4]	@ zero_extendqisi2
 804 0038 032B     		cmp	r3, #3
 805 003a 03D0     		beq	.L80
 352:source\asw/TimingAnalyzer.c ****     {
 806              		.loc 1 352 0 is_stmt 0 discriminator 1
 807 003c 012B     		cmp	r3, #1
 808 003e 01D0     		beq	.L80
 352:source\asw/TimingAnalyzer.c ****     {
 809              		.loc 1 352 0 discriminator 2
 810 0040 042B     		cmp	r3, #4
 811 0042 03D1     		bne	.L81
 812              	.L80:
 354:source\asw/TimingAnalyzer.c ****         {
 813              		.loc 1 354 0 is_stmt 1
 814 0044 6369     		ldr	r3, [r4, #20]
 815 0046 5BB1     		cbz	r3, .L84
 356:source\asw/TimingAnalyzer.c ****         } else {
 816              		.loc 1 356 0
 817 0048 0020     		movs	r0, #0
 818 004a 9847     		blx	r3
 819              	.LVL67:
 820              	.L81:
 363:source\asw/TimingAnalyzer.c ****     
 821              		.loc 1 363 0
 822 004c 0323     		movs	r3, #3
 823 004e 6371     		strb	r3, [r4, #5]
 365:source\asw/TimingAnalyzer.c **** }
 824              		.loc 1 365 0
 825 0050 2846     		mov	r0, r5
 826 0052 38BD     		pop	{r3, r4, r5, pc}
 827              	.LVL68:
 828              	.L82:
 829              		.cfi_def_cfa_offset 0
 830              		.cfi_restore 3
 831              		.cfi_restore 4
 832              		.cfi_restore 5
 833              		.cfi_restore 14
 329:source\asw/TimingAnalyzer.c ****     }
 834              		.loc 1 329 0
 835 0054 6FF00100 		mvn	r0, #1
 836              	.LVL69:
 366:source\asw/TimingAnalyzer.c **** 
 837              		.loc 1 366 0
ARM GAS  C:\Users\agila\AppData\Local\Temp\ccG0E307.s 			page 28


 838 0058 7047     		bx	lr
 839              	.LVL70:
 840              	.L83:
 841              		.cfi_def_cfa_offset 16
 842              		.cfi_offset 3, -16
 843              		.cfi_offset 4, -12
 844              		.cfi_offset 5, -8
 845              		.cfi_offset 14, -4
 335:source\asw/TimingAnalyzer.c ****     }
 846              		.loc 1 335 0
 847 005a 6FF01600 		mvn	r0, #22
 848              	.LVL71:
 849 005e 38BD     		pop	{r3, r4, r5, pc}
 850              	.LVL72:
 851              	.L84:
 358:source\asw/TimingAnalyzer.c ****         }
 852              		.loc 1 358 0
 853 0060 6FF00100 		mvn	r0, #1
 366:source\asw/TimingAnalyzer.c **** 
 854              		.loc 1 366 0
 855 0064 38BD     		pop	{r3, r4, r5, pc}
 856              	.LVL73:
 857              	.L87:
 858 0066 00BF     		.align	2
 859              	.L86:
 860 0068 00000000 		.word	.LANCHOR0
 861 006c 001000E0 		.word	-536866816
 862              		.cfi_endproc
 863              	.LFE69:
 864              		.size	TA_stop, .-TA_stop
 865              		.section	.text.TA_getElapsedTimeInMs,"ax",%progbits
 866              		.align	2
 867              		.global	TA_getElapsedTimeInMs
 868              		.thumb
 869              		.thumb_func
 870              		.type	TA_getElapsedTimeInMs, %function
 871              	TA_getElapsedTimeInMs:
 872              	.LFB72:
 443:source\asw/TimingAnalyzer.c ****     RC_t res = RC_SUCCESS;
 873              		.loc 1 443 0
 874              		.cfi_startproc
 875              		@ args = 0, pretend = 0, frame = 0
 876              		@ frame_needed = 0, uses_anonymous_args = 0
 877              		@ link register save eliminated.
 878              	.LVL74:
 447:source\asw/TimingAnalyzer.c **** 
 879              		.loc 1 447 0
 880 0000 0369     		ldr	r3, [r0, #16]
 881 0002 0248     		ldr	r0, .L89
 882              	.LVL75:
 883 0004 A0FB0330 		umull	r3, r0, r0, r3
 884              	.LVL76:
 450:source\asw/TimingAnalyzer.c **** 
 885              		.loc 1 450 0
 886 0008 400A     		lsrs	r0, r0, #9
 887              	.LVL77:
 888 000a 7047     		bx	lr
ARM GAS  C:\Users\agila\AppData\Local\Temp\ccG0E307.s 			page 29


 889              	.L90:
 890              		.align	2
 891              	.L89:
 892 000c F1197605 		.word	91625969
 893              		.cfi_endproc
 894              	.LFE72:
 895              		.size	TA_getElapsedTimeInMs, .-TA_getElapsedTimeInMs
 896              		.section	.text.TA_printStatus,"ax",%progbits
 897              		.align	2
 898              		.global	TA_printStatus
 899              		.thumb
 900              		.thumb_func
 901              		.type	TA_printStatus, %function
 902              	TA_printStatus:
 903              	.LFB73:
 458:source\asw/TimingAnalyzer.c ****     RC_t res = RC_SUCCESS;
 904              		.loc 1 458 0
 905              		.cfi_startproc
 906              		@ args = 0, pretend = 0, frame = 152
 907              		@ frame_needed = 0, uses_anonymous_args = 0
 908              	.LVL78:
 462:source\asw/TimingAnalyzer.c ****     {
 909              		.loc 1 462 0
 910 0000 0028     		cmp	r0, #0
 911 0002 48D0     		beq	.L102
 458:source\asw/TimingAnalyzer.c ****     RC_t res = RC_SUCCESS;
 912              		.loc 1 458 0
 913 0004 70B5     		push	{r4, r5, r6, lr}
 914              		.cfi_def_cfa_offset 16
 915              		.cfi_offset 4, -16
 916              		.cfi_offset 5, -12
 917              		.cfi_offset 6, -8
 918              		.cfi_offset 14, -4
 919 0006 AAB0     		sub	sp, sp, #168
 920              		.cfi_def_cfa_offset 184
 921 0008 0346     		mov	r3, r0
 472:source\asw/TimingAnalyzer.c ****     {
 922              		.loc 1 472 0
 923 000a 4279     		ldrb	r2, [r0, #5]	@ zero_extendqisi2
 924 000c 032A     		cmp	r2, #3
 925 000e 09D8     		bhi	.L93
 926 0010 DFE802F0 		tbb	[pc, r2]
 927              	.L95:
 928 0014 02       		.byte	(.L94-.L95)/2
 929 0015 04       		.byte	(.L96-.L95)/2
 930 0016 06       		.byte	(.L97-.L95)/2
 931 0017 0A       		.byte	(.L103-.L95)/2
 932              		.p2align 1
 933              	.L94:
 475:source\asw/TimingAnalyzer.c ****             break;
 934              		.loc 1 475 0
 935 0018 214A     		ldr	r2, .L106
 936 001a 06E0     		b	.L98
 937              	.L96:
 938              	.LVL79:
 481:source\asw/TimingAnalyzer.c ****             break;
 939              		.loc 1 481 0
ARM GAS  C:\Users\agila\AppData\Local\Temp\ccG0E307.s 			page 30


 940 001c 214A     		ldr	r2, .L106+4
 482:source\asw/TimingAnalyzer.c ****         case TA_STATE_PAUSED:  
 941              		.loc 1 482 0
 942 001e 04E0     		b	.L98
 943              	.LVL80:
 944              	.L97:
 484:source\asw/TimingAnalyzer.c ****             break;
 945              		.loc 1 484 0
 946 0020 214A     		ldr	r2, .L106+8
 485:source\asw/TimingAnalyzer.c ****         default:
 947              		.loc 1 485 0
 948 0022 02E0     		b	.L98
 949              	.LVL81:
 950              	.L93:
 487:source\asw/TimingAnalyzer.c ****             break;
 951              		.loc 1 487 0
 952 0024 214A     		ldr	r2, .L106+12
 488:source\asw/TimingAnalyzer.c ****     }    
 953              		.loc 1 488 0
 954 0026 00E0     		b	.L98
 955              	.LVL82:
 956              	.L103:
 478:source\asw/TimingAnalyzer.c ****             break;
 957              		.loc 1 478 0
 958 0028 214A     		ldr	r2, .L106+16
 959              	.L98:
 960 002a 1846     		mov	r0, r3
 961              	.LVL83:
 492:source\asw/TimingAnalyzer.c ****     {
 962              		.loc 1 492 0
 963 002c 1B79     		ldrb	r3, [r3, #4]	@ zero_extendqisi2
 964              	.LVL84:
 965 002e 012B     		cmp	r3, #1
 966 0030 19D8     		bhi	.L99
 967              	.LBB3:
 495:source\asw/TimingAnalyzer.c ****         rem_cycles = me->elapsed_time % BCLK__BUS_CLK__KHZ;
 968              		.loc 1 495 0
 969 0032 0669     		ldr	r6, [r0, #16]
 970 0034 1F49     		ldr	r1, .L106+20
 971 0036 A1FB0634 		umull	r3, r4, r1, r6
 972 003a 640A     		lsrs	r4, r4, #9
 973              	.LVL85:
 496:source\asw/TimingAnalyzer.c ****         frac_ms = (rem_cycles * TA_SCALE_FACTOR) / BCLK__BUS_CLK__KHZ;
 974              		.loc 1 496 0
 975 003c 45F6C053 		movw	r3, #24000
 976 0040 03FB1465 		mls	r5, r3, r4, r6
 977              	.LVL86:
 497:source\asw/TimingAnalyzer.c ****         
 978              		.loc 1 497 0
 979 0044 1C4B     		ldr	r3, .L106+24
 980 0046 03FB05F3 		mul	r3, r3, r5
 981 004a A1FB0331 		umull	r3, r1, r1, r3
 982 004e 490A     		lsrs	r1, r1, #9
 983              	.LVL87:
 499:source\asw/TimingAnalyzer.c ****              me->name, strState, int_ms, frac_ms, me->elapsed_time);
 984              		.loc 1 499 0
 985 0050 0368     		ldr	r3, [r0]
ARM GAS  C:\Users\agila\AppData\Local\Temp\ccG0E307.s 			page 31


 986 0052 0396     		str	r6, [sp, #12]
 987 0054 0291     		str	r1, [sp, #8]
 988 0056 0194     		str	r4, [sp, #4]
 989 0058 0092     		str	r2, [sp]
 990 005a 184A     		ldr	r2, .L106+28
 991              	.LVL88:
 992 005c 9621     		movs	r1, #150
 993              	.LVL89:
 994 005e 04A8     		add	r0, sp, #16
 995              	.LVL90:
 996 0060 FFF7FEFF 		bl	snprintf
 997              	.LVL91:
 998              	.LBE3:
 999 0064 12E0     		b	.L100
 1000              	.LVL92:
 1001              	.L99:
 501:source\asw/TimingAnalyzer.c ****         snprintf(buffer, sizeof(buffer), "Name: %s | State: %s\r\n", // N10
 1002              		.loc 1 501 0
 1003 0066 042B     		cmp	r3, #4
 1004 0068 07D1     		bne	.L101
 502:source\asw/TimingAnalyzer.c ****             me->name, strState);
 1005              		.loc 1 502 0
 1006 006a 0368     		ldr	r3, [r0]
 1007 006c 0092     		str	r2, [sp]
 1008 006e 144A     		ldr	r2, .L106+32
 1009              	.LVL93:
 1010 0070 9621     		movs	r1, #150
 1011 0072 04A8     		add	r0, sp, #16
 1012              	.LVL94:
 1013 0074 FFF7FEFF 		bl	snprintf
 1014              	.LVL95:
 1015 0078 08E0     		b	.L100
 1016              	.LVL96:
 1017              	.L101:
 505:source\asw/TimingAnalyzer.c ****             me->name, strState, me->elapsed_time);
 1018              		.loc 1 505 0
 1019 007a 0368     		ldr	r3, [r0]
 1020 007c 0169     		ldr	r1, [r0, #16]
 1021 007e 0191     		str	r1, [sp, #4]
 1022 0080 0092     		str	r2, [sp]
 1023 0082 104A     		ldr	r2, .L106+36
 1024              	.LVL97:
 1025 0084 9621     		movs	r1, #150
 1026 0086 04A8     		add	r0, sp, #16
 1027              	.LVL98:
 1028 0088 FFF7FEFF 		bl	snprintf
 1029              	.LVL99:
 1030              	.L100:
 510:source\asw/TimingAnalyzer.c ****     
 1031              		.loc 1 510 0
 1032 008c 04A8     		add	r0, sp, #16
 1033 008e FFF7FEFF 		bl	UART_LOG_PutString
 1034              	.LVL100:
 512:source\asw/TimingAnalyzer.c **** }
 1035              		.loc 1 512 0
 1036 0092 0020     		movs	r0, #0
 1037 0094 02E0     		b	.L92
ARM GAS  C:\Users\agila\AppData\Local\Temp\ccG0E307.s 			page 32


 1038              	.LVL101:
 1039              	.L102:
 1040              		.cfi_def_cfa_offset 0
 1041              		.cfi_restore 4
 1042              		.cfi_restore 5
 1043              		.cfi_restore 6
 1044              		.cfi_restore 14
 464:source\asw/TimingAnalyzer.c ****     }
 1045              		.loc 1 464 0
 1046 0096 6FF00100 		mvn	r0, #1
 1047              	.LVL102:
 1048 009a 7047     		bx	lr
 1049              	.L92:
 1050              		.cfi_def_cfa_offset 184
 1051              		.cfi_offset 4, -16
 1052              		.cfi_offset 5, -12
 1053              		.cfi_offset 6, -8
 1054              		.cfi_offset 14, -4
 513:source\asw/TimingAnalyzer.c **** 
 1055              		.loc 1 513 0
 1056 009c 2AB0     		add	sp, sp, #168
 1057              		.cfi_def_cfa_offset 16
 1058              		@ sp needed
 1059 009e 70BD     		pop	{r4, r5, r6, pc}
 1060              	.L107:
 1061              		.align	2
 1062              	.L106:
 1063 00a0 00000000 		.word	.LC0
 1064 00a4 10000000 		.word	.LC2
 1065 00a8 18000000 		.word	.LC3
 1066 00ac 20000000 		.word	.LC4
 1067 00b0 08000000 		.word	.LC1
 1068 00b4 F1197605 		.word	91625969
 1069 00b8 40420F00 		.word	1000000
 1070 00bc 28000000 		.word	.LC5
 1071 00c0 68000000 		.word	.LC6
 1072 00c4 80000000 		.word	.LC7
 1073              		.cfi_endproc
 1074              	.LFE73:
 1075              		.size	TA_printStatus, .-TA_printStatus
 1076              		.section	.text.TA_printAll,"ax",%progbits
 1077              		.align	2
 1078              		.global	TA_printAll
 1079              		.thumb
 1080              		.thumb_func
 1081              		.type	TA_printAll, %function
 1082              	TA_printAll:
 1083              	.LFB74:
 521:source\asw/TimingAnalyzer.c ****     RC_t res = RC_SUCCESS;
 1084              		.loc 1 521 0
 1085              		.cfi_startproc
 1086              		@ args = 0, pretend = 0, frame = 0
 1087              		@ frame_needed = 0, uses_anonymous_args = 0
 1088 0000 10B5     		push	{r4, lr}
 1089              		.cfi_def_cfa_offset 8
 1090              		.cfi_offset 4, -8
 1091              		.cfi_offset 14, -4
ARM GAS  C:\Users\agila\AppData\Local\Temp\ccG0E307.s 			page 33


 1092              	.LVL103:
 1093              	.LBB4:
 526:source\asw/TimingAnalyzer.c ****     {
 1094              		.loc 1 526 0
 1095 0002 0024     		movs	r4, #0
 1096              	.LBE4:
 524:source\asw/TimingAnalyzer.c ****     
 1097              		.loc 1 524 0
 1098 0004 2246     		mov	r2, r4
 1099              	.LBB8:
 526:source\asw/TimingAnalyzer.c ****     {
 1100              		.loc 1 526 0
 1101 0006 0BE0     		b	.L109
 1102              	.LVL104:
 1103              	.L111:
 1104              	.LBB5:
 528:source\asw/TimingAnalyzer.c ****         if ((me != NULL_PTR) && me->state)
 1105              		.loc 1 528 0
 1106 0008 0F4B     		ldr	r3, .L116
 1107 000a 03EB8403 		add	r3, r3, r4, lsl #2
 1108 000e 9868     		ldr	r0, [r3, #8]
 1109              	.LVL105:
 529:source\asw/TimingAnalyzer.c ****         {
 1110              		.loc 1 529 0
 1111 0010 88B1     		cbz	r0, .L112
 529:source\asw/TimingAnalyzer.c ****         {
 1112              		.loc 1 529 0 is_stmt 0 discriminator 1
 1113 0012 4379     		ldrb	r3, [r0, #5]	@ zero_extendqisi2
 1114 0014 93B1     		cbz	r3, .L113
 1115              	.LVL106:
 532:source\asw/TimingAnalyzer.c ****         } else {
 1116              		.loc 1 532 0 is_stmt 1
 1117 0016 FFF7FEFF 		bl	TA_printStatus
 1118              	.LVL107:
 1119              	.LBE5:
 526:source\asw/TimingAnalyzer.c ****     {
 1120              		.loc 1 526 0
 1121 001a 0134     		adds	r4, r4, #1
 1122              	.LVL108:
 1123 001c E4B2     		uxtb	r4, r4
 1124              	.LVL109:
 1125              	.LBB6:
 531:source\asw/TimingAnalyzer.c ****             TA_printStatus(me);
 1126              		.loc 1 531 0
 1127 001e 0122     		movs	r2, #1
 1128              	.LVL110:
 1129              	.L109:
 1130              	.LBE6:
 526:source\asw/TimingAnalyzer.c ****     {
 1131              		.loc 1 526 0 discriminator 1
 1132 0020 094B     		ldr	r3, .L116
 1133 0022 1B79     		ldrb	r3, [r3, #4]	@ zero_extendqisi2
 1134 0024 9C42     		cmp	r4, r3
 1135 0026 EFD3     		bcc	.L111
 1136              	.LBE8:
 539:source\asw/TimingAnalyzer.c ****     {
 1137              		.loc 1 539 0
ARM GAS  C:\Users\agila\AppData\Local\Temp\ccG0E307.s 			page 34


 1138 0028 5AB9     		cbnz	r2, .L114
 542:source\asw/TimingAnalyzer.c ****         
 1139              		.loc 1 542 0
 1140 002a 0848     		ldr	r0, .L116+4
 1141 002c FFF7FEFF 		bl	UART_LOG_PutString
 1142              	.LVL111:
 544:source\asw/TimingAnalyzer.c ****     }  
 1143              		.loc 1 544 0
 1144 0030 6FF00800 		mvn	r0, #8
 1145 0034 10BD     		pop	{r4, pc}
 1146              	.LVL112:
 1147              	.L112:
 1148              	.LBB9:
 1149              	.LBB7:
 534:source\asw/TimingAnalyzer.c ****         }
 1150              		.loc 1 534 0
 1151 0036 6FF00100 		mvn	r0, #1
 1152              	.LVL113:
 1153 003a 10BD     		pop	{r4, pc}
 1154              	.LVL114:
 1155              	.L113:
 1156 003c 6FF00100 		mvn	r0, #1
 1157              	.LVL115:
 1158 0040 10BD     		pop	{r4, pc}
 1159              	.LVL116:
 1160              	.L114:
 1161              	.LBE7:
 1162              	.LBE9:
 522:source\asw/TimingAnalyzer.c ****     
 1163              		.loc 1 522 0
 1164 0042 0020     		movs	r0, #0
 547:source\asw/TimingAnalyzer.c **** 
 1165              		.loc 1 547 0
 1166 0044 10BD     		pop	{r4, pc}
 1167              	.LVL117:
 1168              	.L117:
 1169 0046 00BF     		.align	2
 1170              	.L116:
 1171 0048 00000000 		.word	.LANCHOR0
 1172 004c B0000000 		.word	.LC8
 1173              		.cfi_endproc
 1174              	.LFE74:
 1175              		.size	TA_printAll, .-TA_printAll
 1176              		.comm	Pin_t,1,1
 1177              		.section	.rodata.str1.4,"aMS",%progbits,1
 1178              		.align	2
 1179              	.LC0:
 1180 0000 49444C45 		.ascii	"IDLE\000"
 1180      00
 1181 0005 000000   		.space	3
 1182              	.LC1:
 1183 0008 53544F50 		.ascii	"STOPPED\000"
 1183      50454400 
 1184              	.LC2:
 1185 0010 52554E4E 		.ascii	"RUNNING\000"
 1185      494E4700 
 1186              	.LC3:
ARM GAS  C:\Users\agila\AppData\Local\Temp\ccG0E307.s 			page 35


 1187 0018 50415553 		.ascii	"PAUSED\000"
 1187      454400
 1188 001f 00       		.space	1
 1189              	.LC4:
 1190 0020 554E4B4E 		.ascii	"UNKNOWN\000"
 1190      4F574E00 
 1191              	.LC5:
 1192 0028 4E616D65 		.ascii	"Name: %s | State: %s | Elapsed time: %u.%06ums | Cy"
 1192      3A202573 
 1192      207C2053 
 1192      74617465 
 1192      3A202573 
 1193 005b 636C6573 		.ascii	"cles: %u\015\012\000"
 1193      3A202575 
 1193      0D0A00
 1194 0066 0000     		.space	2
 1195              	.LC6:
 1196 0068 4E616D65 		.ascii	"Name: %s | State: %s\015\012\000"
 1196      3A202573 
 1196      207C2053 
 1196      74617465 
 1196      3A202573 
 1197 007f 00       		.space	1
 1198              	.LC7:
 1199 0080 4E616D65 		.ascii	"Name: %s | State: %s | Elapsed time: %lums\015\012\000"
 1199      3A202573 
 1199      207C2053 
 1199      74617465 
 1199      3A202573 
 1200 00ad 000000   		.space	3
 1201              	.LC8:
 1202 00b0 0D0A496E 		.ascii	"\015\012Info: No analyzer instance available to pri"
 1202      666F3A20 
 1202      4E6F2061 
 1202      6E616C79 
 1202      7A657220 
 1203 00dd 6E742E0D 		.ascii	"nt.\015\012\000"
 1203      0A00
 1204              		.bss
 1205              		.align	2
 1206              		.set	.LANCHOR0,. + 0
 1207              		.type	ta_g_system_ms, %object
 1208              		.size	ta_g_system_ms, 4
 1209              	ta_g_system_ms:
 1210 0000 00000000 		.space	4
 1211              		.type	ta_g_analyzer_count, %object
 1212              		.size	ta_g_analyzer_count, 1
 1213              	ta_g_analyzer_count:
 1214 0004 00       		.space	1
 1215 0005 000000   		.space	3
 1216              		.type	ta_g_analyzers, %object
 1217              		.size	ta_g_analyzers, 40
 1218              	ta_g_analyzers:
 1219 0008 00000000 		.space	40
 1219      00000000 
 1219      00000000 
 1219      00000000 
ARM GAS  C:\Users\agila\AppData\Local\Temp\ccG0E307.s 			page 36


 1219      00000000 
 1220              		.text
 1221              	.Letext0:
 1222              		.file 2 "c:\\h_da softwares & projects\\psoc creator\\4.4\\psoc creator\\import\\gnu\\arm\\5.4.1\\
 1223              		.file 3 "c:\\h_da softwares & projects\\psoc creator\\4.4\\psoc creator\\import\\gnu\\arm\\5.4.1\\
 1224              		.file 4 "Generated_Source\\PSoC5/core_cm3.h"
 1225              		.file 5 ".\\source\\bsw/global.h"
 1226              		.file 6 "source\\asw\\TimingAnalyzer.h"
 1227              		.file 7 ".\\source\\bsw/Pins.h"
 1228              		.file 8 "Generated_Source\\PSoC5/CyLib.h"
 1229              		.file 9 "c:\\h_da softwares & projects\\psoc creator\\4.4\\psoc creator\\import\\gnu\\arm\\5.4.1\\
 1230              		.file 10 "Generated_Source\\PSoC5/UART_LOG.h"